
========================================================================

** ELF Header Information

    File Name: .\obj\UART.axf

    Machine class: ELFCLASS32 (32-bit)
    Data encoding: ELFDATA2LSB (Little endian)
    Header version: EV_CURRENT (Current version)
    Operating System ABI: none
    ABI Version: 0
    File Type: ET_EXEC (Executable) (2)
    Machine: EM_ARM (ARM)

    Image Entry point: 0x000000d5
    Flags: EF_ARM_HASENTRY + EF_ARM_ABI_FLOAT_SOFT (0x05000202)

    ARM ELF revision: 5 (ABI version 2)

    Conforms to Soft float procedure-call standard

    Built with
    Component: ARM Compiler 5.06 update 1 (build 61) Tool: armasm [4d35a5]
    Component: ARM Compiler 5.06 update 1 (build 61) Tool: armlink [4d35a8]

    Header size: 52 bytes (0x34)
    Program header entry size: 32 bytes (0x20)
    Section header entry size: 40 bytes (0x28)

    Program header entries: 1
    Section header entries: 16

    Program header offset: 649712 (0x0009e9f0)
    Section header offset: 649744 (0x0009ea10)

    Section header string table index: 15

========================================================================

** Program header #0 (PT_LOAD) [PF_X + PF_W + PF_R + PF_ARM_ENTRY]
    Size : 21296 bytes (18988 bytes in file)
    Virtual address: 0x00000000 (Alignment 8)


========================================================================

** Section #1 'ER_RO' (SHT_PROGBITS) [SHF_ALLOC + SHF_EXECINSTR]
    Size   : 14904 bytes (alignment 8)
    Address: 0x00000000

    $d.realdata
    RESET
    __Vectors
        0x00000000:    200018f8    ...     DCD    536877304
        0x00000004:    000000d5    ....    DCD    213
        0x00000008:    000000f1    ....    DCD    241
        0x0000000c:    000000f3    ....    DCD    243
        0x00000010:    00000000    ....    DCD    0
        0x00000014:    00000000    ....    DCD    0
        0x00000018:    00000000    ....    DCD    0
        0x0000001c:    00000000    ....    DCD    0
        0x00000020:    00000000    ....    DCD    0
        0x00000024:    00000000    ....    DCD    0
        0x00000028:    00000000    ....    DCD    0
        0x0000002c:    000000f5    ....    DCD    245
        0x00000030:    00000000    ....    DCD    0
        0x00000034:    00000000    ....    DCD    0
        0x00000038:    000000f7    ....    DCD    247
        0x0000003c:    000000f9    ....    DCD    249
        0x00000040:    000000fb    ....    DCD    251
        0x00000044:    000000fb    ....    DCD    251
        0x00000048:    000000fb    ....    DCD    251
        0x0000004c:    000000fb    ....    DCD    251
        0x00000050:    000000fb    ....    DCD    251
        0x00000054:    000000fb    ....    DCD    251
        0x00000058:    000000fb    ....    DCD    251
        0x0000005c:    00000000    ....    DCD    0
        0x00000060:    00001ad1    ....    DCD    6865
        0x00000064:    00001c1d    ....    DCD    7197
        0x00000068:    000000fb    ....    DCD    251
        0x0000006c:    000000fb    ....    DCD    251
        0x00000070:    000000fb    ....    DCD    251
        0x00000074:    000000fb    ....    DCD    251
        0x00000078:    000000fb    ....    DCD    251
        0x0000007c:    000000fb    ....    DCD    251
        0x00000080:    000000fb    ....    DCD    251
        0x00000084:    000000fb    ....    DCD    251
        0x00000088:    000000fb    ....    DCD    251
        0x0000008c:    000000fb    ....    DCD    251
        0x00000090:    000000fb    ....    DCD    251
        0x00000094:    000000fb    ....    DCD    251
        0x00000098:    000000fb    ....    DCD    251
        0x0000009c:    000000fb    ....    DCD    251
        0x000000a0:    000000fb    ....    DCD    251
        0x000000a4:    000000fb    ....    DCD    251
        0x000000a8:    000000fb    ....    DCD    251
        0x000000ac:    000000fb    ....    DCD    251
        0x000000b0:    000000fb    ....    DCD    251
        0x000000b4:    000000fb    ....    DCD    251
        0x000000b8:    000000fb    ....    DCD    251
        0x000000bc:    000000fb    ....    DCD    251
    $t
    .ARM.Collect$$$$00000000
    .ARM.Collect$$$$00000001
    __main
    _main_stk
        0x000000c0:    4803        .H      LDR      r0,__lit__00000000 ; [0xd0] = 0x200018f8
        0x000000c2:    4685        .F      MOV      sp,r0
    .ARM.Collect$$$$00000004
    _main_scatterload
        0x000000c4:    f000fba8    ....    BL       __scatterload ; 0x818
    .ARM.Collect$$$$00000008
    .ARM.Collect$$$$0000000A
    .ARM.Collect$$$$0000000B
    __main_after_scatterload
    _main_clock
    _main_cpp_init
    _main_init
        0x000000c8:    4800        .H      LDR      r0,[pc,#0] ; [0xcc] = 0x23f5
        0x000000ca:    4700        .G      BX       r0
    $d
        0x000000cc:    000023f5    .#..    DCD    9205
    .ARM.Collect$$$$00002712
    __lit__00000000
    .ARM.Collect$$$$0000000D
    .ARM.Collect$$$$0000000F
    __rt_final_cpp
    __rt_final_exit
        0x000000d0:    200018f8    ...     DCD    536877304
    $t
    .text
    Reset_Handler
        0x000000d4:    4809        .H      LDR      r0,[pc,#36] ; [0xfc] = 0x50000100
        0x000000d6:    490a        .I      LDR      r1,[pc,#40] ; [0x100] = 0x59
        0x000000d8:    6001        .`      STR      r1,[r0,#0]
        0x000000da:    490a        .I      LDR      r1,[pc,#40] ; [0x104] = 0x16
        0x000000dc:    6001        .`      STR      r1,[r0,#0]
        0x000000de:    490a        .I      LDR      r1,[pc,#40] ; [0x108] = 0x88
        0x000000e0:    6001        .`      STR      r1,[r0,#0]
        0x000000e2:    4a0a        .J      LDR      r2,[pc,#40] ; [0x10c] = 0x50000060
        0x000000e4:    490a        .I      LDR      r1,[pc,#40] ; [0x110] = 0x5aa5
        0x000000e6:    6011        .`      STR      r1,[r2,#0]
        0x000000e8:    2100        .!      MOVS     r1,#0
        0x000000ea:    6001        .`      STR      r1,[r0,#0]
        0x000000ec:    4809        .H      LDR      r0,[pc,#36] ; [0x114] = 0xc1
        0x000000ee:    4700        .G      BX       r0
    NMI_Handler
        0x000000f0:    e7fe        ..      B        NMI_Handler ; 0xf0
    HardFault_Handler
        0x000000f2:    e7fe        ..      B        HardFault_Handler ; 0xf2
    SVC_Handler
        0x000000f4:    e7fe        ..      B        SVC_Handler ; 0xf4
    PendSV_Handler
        0x000000f6:    e7fe        ..      B        PendSV_Handler ; 0xf6
    SysTick_Handler
        0x000000f8:    e7fe        ..      B        SysTick_Handler ; 0xf8
    Default_Handler
    ACMP_IRQHandler
    ADC_IRQHandler
    BOD_IRQHandler
    EINT0_IRQHandler
    EINT1_IRQHandler
    GPABC_IRQHandler
    GPDEF_IRQHandler
    HIRC_IRQHandler
    I2C0_IRQHandler
    I2C1_IRQHandler
    LCD_IRQHandler
    PDMA_IRQHandler
    PDWU_IRQHandler
    PWM0_IRQHandler
    RTC_IRQHandler
    SC0_IRQHandler
    SC1_IRQHandler
    SPI0_IRQHandler
    SPI1_IRQHandler
    TMR2_IRQHandler
    TMR3_IRQHandler
    UART0_IRQHandler
    UART1_IRQHandler
    WDT_IRQHandler
        0x000000fa:    e7fe        ..      B        Default_Handler ; 0xfa
    $d
        0x000000fc:    50000100    ...P    DCD    1342177536
        0x00000100:    00000059    Y...    DCD    89
        0x00000104:    00000016    ....    DCD    22
        0x00000108:    00000088    ....    DCD    136
        0x0000010c:    50000060    `..P    DCD    1342177376
        0x00000110:    00005aa5    .Z..    DCD    23205
        0x00000114:    000000c1    ....    DCD    193
    $t
    .text
    __aeabi_uidiv
    __aeabi_uidivmod
        0x00000118:    b530        0.      PUSH     {r4,r5,lr}
        0x0000011a:    460b        .F      MOV      r3,r1
        0x0000011c:    4601        .F      MOV      r1,r0
        0x0000011e:    2000        .       MOVS     r0,#0
        0x00000120:    2220         "      MOVS     r2,#0x20
        0x00000122:    2401        .$      MOVS     r4,#1
        0x00000124:    e009        ..      B        0x13a ; __aeabi_uidiv + 34
        0x00000126:    460d        .F      MOV      r5,r1
        0x00000128:    40d5        .@      LSRS     r5,r5,r2
        0x0000012a:    429d        .B      CMP      r5,r3
        0x0000012c:    d305        ..      BCC      0x13a ; __aeabi_uidiv + 34
        0x0000012e:    461d        .F      MOV      r5,r3
        0x00000130:    4095        .@      LSLS     r5,r5,r2
        0x00000132:    1b49        I.      SUBS     r1,r1,r5
        0x00000134:    4625        %F      MOV      r5,r4
        0x00000136:    4095        .@      LSLS     r5,r5,r2
        0x00000138:    1940        @.      ADDS     r0,r0,r5
        0x0000013a:    4615        .F      MOV      r5,r2
        0x0000013c:    1e52        R.      SUBS     r2,r2,#1
        0x0000013e:    2d00        .-      CMP      r5,#0
        0x00000140:    dcf1        ..      BGT      0x126 ; __aeabi_uidiv + 14
        0x00000142:    bd30        0.      POP      {r4,r5,pc}
    .text
    __aeabi_idiv
    __aeabi_idivmod
        0x00000144:    b570        p.      PUSH     {r4-r6,lr}
        0x00000146:    2400        .$      MOVS     r4,#0
        0x00000148:    4625        %F      MOV      r5,r4
        0x0000014a:    2800        .(      CMP      r0,#0
        0x0000014c:    da01        ..      BGE      0x152 ; __aeabi_idiv + 14
        0x0000014e:    2401        .$      MOVS     r4,#1
        0x00000150:    4240        @B      RSBS     r0,r0,#0
        0x00000152:    2900        .)      CMP      r1,#0
        0x00000154:    da01        ..      BGE      0x15a ; __aeabi_idiv + 22
        0x00000156:    2501        .%      MOVS     r5,#1
        0x00000158:    4249        IB      RSBS     r1,r1,#0
        0x0000015a:    f7ffffdd    ....    BL       __aeabi_uidiv ; 0x118
        0x0000015e:    42ac        .B      CMP      r4,r5
        0x00000160:    d000        ..      BEQ      0x164 ; __aeabi_idiv + 32
        0x00000162:    4240        @B      RSBS     r0,r0,#0
        0x00000164:    2c00        .,      CMP      r4,#0
        0x00000166:    d000        ..      BEQ      0x16a ; __aeabi_idiv + 38
        0x00000168:    4249        IB      RSBS     r1,r1,#0
        0x0000016a:    bd70        p.      POP      {r4-r6,pc}
    .text
    rand
        0x0000016c:    4905        .I      LDR      r1,[pc,#20] ; [0x184] = 0x20000fe8
        0x0000016e:    4a06        .J      LDR      r2,[pc,#24] ; [0x188] = 0x41c64e6d
        0x00000170:    6808        .h      LDR      r0,[r1,#0]
        0x00000172:    4350        PC      MULS     r0,r2,r0
        0x00000174:    4a05        .J      LDR      r2,[pc,#20] ; [0x18c] = 0x3039
        0x00000176:    1880        ..      ADDS     r0,r0,r2
        0x00000178:    6008        .`      STR      r0,[r1,#0]
        0x0000017a:    0840        @.      LSRS     r0,r0,#1
        0x0000017c:    4770        pG      BX       lr
    srand
        0x0000017e:    4901        .I      LDR      r1,[pc,#4] ; [0x184] = 0x20000fe8
        0x00000180:    6008        .`      STR      r0,[r1,#0]
        0x00000182:    4770        pG      BX       lr
    $d
        0x00000184:    20000fe8    ...     DCD    536874984
        0x00000188:    41c64e6d    mN.A    DCD    1103515245
        0x0000018c:    00003039    90..    DCD    12345
    $t
    .text
    __aeabi_memcpy
    __aeabi_memcpy4
    __aeabi_memcpy8
        0x00000190:    4603        .F      MOV      r3,r0
        0x00000192:    430b        .C      ORRS     r3,r3,r1
        0x00000194:    079b        ..      LSLS     r3,r3,#30
        0x00000196:    d003        ..      BEQ      0x1a0 ; __aeabi_memcpy + 16
        0x00000198:    e009        ..      B        0x1ae ; __aeabi_memcpy + 30
        0x0000019a:    c908        ..      LDM      r1!,{r3}
        0x0000019c:    1f12        ..      SUBS     r2,r2,#4
        0x0000019e:    c008        ..      STM      r0!,{r3}
        0x000001a0:    2a04        .*      CMP      r2,#4
        0x000001a2:    d2fa        ..      BCS      0x19a ; __aeabi_memcpy + 10
        0x000001a4:    e003        ..      B        0x1ae ; __aeabi_memcpy + 30
        0x000001a6:    780b        .x      LDRB     r3,[r1,#0]
        0x000001a8:    7003        .p      STRB     r3,[r0,#0]
        0x000001aa:    1c40        @.      ADDS     r0,r0,#1
        0x000001ac:    1c49        I.      ADDS     r1,r1,#1
        0x000001ae:    1e52        R.      SUBS     r2,r2,#1
        0x000001b0:    d2f9        ..      BCS      0x1a6 ; __aeabi_memcpy + 22
        0x000001b2:    4770        pG      BX       lr
    .text
    strlen
        0x000001b4:    1c42        B.      ADDS     r2,r0,#1
        0x000001b6:    7801        .x      LDRB     r1,[r0,#0]
        0x000001b8:    1c40        @.      ADDS     r0,r0,#1
        0x000001ba:    2900        .)      CMP      r1,#0
        0x000001bc:    d1fb        ..      BNE      0x1b6 ; strlen + 2
        0x000001be:    1a80        ..      SUBS     r0,r0,r2
        0x000001c0:    4770        pG      BX       lr
        0x000001c2:    0000        ..      MOVS     r0,r0
    .text
    __aeabi_dadd
        0x000001c4:    b5f0        ..      PUSH     {r4-r7,lr}
        0x000001c6:    4607        .F      MOV      r7,r0
        0x000001c8:    4608        .F      MOV      r0,r1
        0x000001ca:    4058        X@      EORS     r0,r0,r3
        0x000001cc:    b087        ..      SUB      sp,sp,#0x1c
        0x000001ce:    0fc0        ..      LSRS     r0,r0,#31
        0x000001d0:    9004        ..      STR      r0,[sp,#0x10]
        0x000001d2:    0048        H.      LSLS     r0,r1,#1
        0x000001d4:    460e        .F      MOV      r6,r1
        0x000001d6:    0059        Y.      LSLS     r1,r3,#1
        0x000001d8:    0840        @.      LSRS     r0,r0,#1
        0x000001da:    0849        I.      LSRS     r1,r1,#1
        0x000001dc:    1abc        ..      SUBS     r4,r7,r2
        0x000001de:    4188        .A      SBCS     r0,r0,r1
        0x000001e0:    d205        ..      BCS      0x1ee ; __aeabi_dadd + 42
        0x000001e2:    4638        8F      MOV      r0,r7
        0x000001e4:    4631        1F      MOV      r1,r6
        0x000001e6:    461e        .F      MOV      r6,r3
        0x000001e8:    4617        .F      MOV      r7,r2
        0x000001ea:    460b        .F      MOV      r3,r1
        0x000001ec:    4602        .F      MOV      r2,r0
        0x000001ee:    0058        X.      LSLS     r0,r3,#1
        0x000001f0:    0840        @.      LSRS     r0,r0,#1
        0x000001f2:    4310        .C      ORRS     r0,r0,r2
        0x000001f4:    d04c        L.      BEQ      0x290 ; __aeabi_dadd + 204
        0x000001f6:    0d30        0.      LSRS     r0,r6,#20
        0x000001f8:    9003        ..      STR      r0,[sp,#0xc]
        0x000001fa:    0540        @.      LSLS     r0,r0,#21
        0x000001fc:    0059        Y.      LSLS     r1,r3,#1
        0x000001fe:    0d40        @.      LSRS     r0,r0,#21
        0x00000200:    0d49        I.      LSRS     r1,r1,#21
        0x00000202:    9005        ..      STR      r0,[sp,#0x14]
        0x00000204:    1a40        @.      SUBS     r0,r0,r1
        0x00000206:    9002        ..      STR      r0,[sp,#8]
        0x00000208:    2840        @(      CMP      r0,#0x40
        0x0000020a:    da72        r.      BGE      0x2f2 ; __aeabi_dadd + 302
        0x0000020c:    0318        ..      LSLS     r0,r3,#12
        0x0000020e:    2101        .!      MOVS     r1,#1
        0x00000210:    0b00        ..      LSRS     r0,r0,#12
        0x00000212:    0509        ..      LSLS     r1,r1,#20
        0x00000214:    4308        .C      ORRS     r0,r0,r1
        0x00000216:    9001        ..      STR      r0,[sp,#4]
        0x00000218:    9804        ..      LDR      r0,[sp,#0x10]
        0x0000021a:    9200        ..      STR      r2,[sp,#0]
        0x0000021c:    2800        .(      CMP      r0,#0
        0x0000021e:    d005        ..      BEQ      0x22c ; __aeabi_dadd + 104
        0x00000220:    9901        ..      LDR      r1,[sp,#4]
        0x00000222:    4252        RB      RSBS     r2,r2,#0
        0x00000224:    2000        .       MOVS     r0,#0
        0x00000226:    4188        .A      SBCS     r0,r0,r1
        0x00000228:    9200        ..      STR      r2,[sp,#0]
        0x0000022a:    9001        ..      STR      r0,[sp,#4]
        0x0000022c:    9802        ..      LDR      r0,[sp,#8]
        0x0000022e:    2140        @!      MOVS     r1,#0x40
        0x00000230:    1a0a        ..      SUBS     r2,r1,r0
        0x00000232:    9901        ..      LDR      r1,[sp,#4]
        0x00000234:    9800        ..      LDR      r0,[sp,#0]
        0x00000236:    f000f9a0    ....    BL       __aeabi_llsl ; 0x57a
        0x0000023a:    4605        .F      MOV      r5,r0
        0x0000023c:    460c        .F      MOV      r4,r1
        0x0000023e:    466b        kF      MOV      r3,sp
        0x00000240:    cb07        ..      LDM      r3!,{r0-r2}
        0x00000242:    f000f9bb    ....    BL       __aeabi_lasr ; 0x5bc
        0x00000246:    19c0        ..      ADDS     r0,r0,r7
        0x00000248:    4171        qA      ADCS     r1,r1,r6
        0x0000024a:    9a03        ..      LDR      r2,[sp,#0xc]
        0x0000024c:    0d0e        ..      LSRS     r6,r1,#20
        0x0000024e:    2300        .#      MOVS     r3,#0
        0x00000250:    17d7        ..      ASRS     r7,r2,#31
        0x00000252:    4056        V@      EORS     r6,r6,r2
        0x00000254:    461a        .F      MOV      r2,r3
        0x00000256:    407a        z@      EORS     r2,r2,r7
        0x00000258:    4316        .C      ORRS     r6,r6,r2
        0x0000025a:    d044        D.      BEQ      0x2e6 ; __aeabi_dadd + 290
        0x0000025c:    9a04        ..      LDR      r2,[sp,#0x10]
        0x0000025e:    2a00        .*      CMP      r2,#0
        0x00000260:    d02d        -.      BEQ      0x2be ; __aeabi_dadd + 250
        0x00000262:    9a02        ..      LDR      r2,[sp,#8]
        0x00000264:    2a01        .*      CMP      r2,#1
        0x00000266:    9a03        ..      LDR      r2,[sp,#0xc]
        0x00000268:    dc15        ..      BGT      0x296 ; __aeabi_dadd + 210
        0x0000026a:    0512        ..      LSLS     r2,r2,#20
        0x0000026c:    1ac0        ..      SUBS     r0,r0,r3
        0x0000026e:    4191        .A      SBCS     r1,r1,r2
        0x00000270:    2601        .&      MOVS     r6,#1
        0x00000272:    0536        6.      LSLS     r6,r6,#20
        0x00000274:    1c00        ..      ADDS     r0,r0,#0
        0x00000276:    4171        qA      ADCS     r1,r1,r6
        0x00000278:    0fd2        ..      LSRS     r2,r2,#31
        0x0000027a:    9e05        ..      LDR      r6,[sp,#0x14]
        0x0000027c:    07d2        ..      LSLS     r2,r2,#31
        0x0000027e:    9300        ..      STR      r3,[sp,#0]
        0x00000280:    9201        ..      STR      r2,[sp,#4]
        0x00000282:    9602        ..      STR      r6,[sp,#8]
        0x00000284:    462a        *F      MOV      r2,r5
        0x00000286:    4623        #F      MOV      r3,r4
        0x00000288:    f000f9f9    ....    BL       _double_epilogue ; 0x67e
        0x0000028c:    b007        ..      ADD      sp,sp,#0x1c
        0x0000028e:    bdf0        ..      POP      {r4-r7,pc}
        0x00000290:    4638        8F      MOV      r0,r7
        0x00000292:    4631        1F      MOV      r1,r6
        0x00000294:    e7fa        ..      B        0x28c ; __aeabi_dadd + 200
        0x00000296:    0516        ..      LSLS     r6,r2,#20
        0x00000298:    4a22        "J      LDR      r2,[pc,#136] ; [0x324] = 0xffe00000
        0x0000029a:    460f        .F      MOV      r7,r1
        0x0000029c:    18b2        ..      ADDS     r2,r6,r2
        0x0000029e:    1ac0        ..      SUBS     r0,r0,r3
        0x000002a0:    41b7        .A      SBCS     r7,r7,r6
        0x000002a2:    2101        .!      MOVS     r1,#1
        0x000002a4:    0509        ..      LSLS     r1,r1,#20
        0x000002a6:    1c00        ..      ADDS     r0,r0,#0
        0x000002a8:    414f        OA      ADCS     r7,r7,r1
        0x000002aa:    1800        ..      ADDS     r0,r0,r0
        0x000002ac:    417f        .A      ADCS     r7,r7,r7
        0x000002ae:    4611        .F      MOV      r1,r2
        0x000002b0:    1818        ..      ADDS     r0,r3,r0
        0x000002b2:    4179        yA      ADCS     r1,r1,r7
        0x000002b4:    0fe2        ..      LSRS     r2,r4,#31
        0x000002b6:    4310        .C      ORRS     r0,r0,r2
        0x000002b8:    196d        m.      ADDS     r5,r5,r5
        0x000002ba:    4164        dA      ADCS     r4,r4,r4
        0x000002bc:    e013        ..      B        0x2e6 ; __aeabi_dadd + 290
        0x000002be:    07e2        ..      LSLS     r2,r4,#31
        0x000002c0:    086d        m.      LSRS     r5,r5,#1
        0x000002c2:    4315        .C      ORRS     r5,r5,r2
        0x000002c4:    0864        d.      LSRS     r4,r4,#1
        0x000002c6:    07c2        ..      LSLS     r2,r0,#31
        0x000002c8:    4314        .C      ORRS     r4,r4,r2
        0x000002ca:    9a03        ..      LDR      r2,[sp,#0xc]
        0x000002cc:    2601        .&      MOVS     r6,#1
        0x000002ce:    0512        ..      LSLS     r2,r2,#20
        0x000002d0:    1ac0        ..      SUBS     r0,r0,r3
        0x000002d2:    4191        .A      SBCS     r1,r1,r2
        0x000002d4:    0536        6.      LSLS     r6,r6,#20
        0x000002d6:    1c00        ..      ADDS     r0,r0,#0
        0x000002d8:    4171        qA      ADCS     r1,r1,r6
        0x000002da:    07ce        ..      LSLS     r6,r1,#31
        0x000002dc:    0840        @.      LSRS     r0,r0,#1
        0x000002de:    4330        0C      ORRS     r0,r0,r6
        0x000002e0:    0849        I.      LSRS     r1,r1,#1
        0x000002e2:    18c0        ..      ADDS     r0,r0,r3
        0x000002e4:    4151        QA      ADCS     r1,r1,r2
        0x000002e6:    462a        *F      MOV      r2,r5
        0x000002e8:    4623        #F      MOV      r3,r4
        0x000002ea:    f000f9bb    ....    BL       _double_round ; 0x664
        0x000002ee:    e7cd        ..      B        0x28c ; __aeabi_dadd + 200
        0x000002f0:    e7ff        ..      B        0x2f2 ; __aeabi_dadd + 302
        0x000002f2:    9804        ..      LDR      r0,[sp,#0x10]
        0x000002f4:    2201        ."      MOVS     r2,#1
        0x000002f6:    0040        @.      LSLS     r0,r0,#1
        0x000002f8:    17c1        ..      ASRS     r1,r0,#31
        0x000002fa:    1a12        ..      SUBS     r2,r2,r0
        0x000002fc:    2300        .#      MOVS     r3,#0
        0x000002fe:    418b        .A      SBCS     r3,r3,r1
        0x00000300:    9804        ..      LDR      r0,[sp,#0x10]
        0x00000302:    4631        1F      MOV      r1,r6
        0x00000304:    17c4        ..      ASRS     r4,r0,#31
        0x00000306:    1a38        8.      SUBS     r0,r7,r0
        0x00000308:    41a1        .A      SBCS     r1,r1,r4
        0x0000030a:    e7ee        ..      B        0x2ea ; __aeabi_dadd + 294
    __aeabi_dsub
        0x0000030c:    b430        0.      PUSH     {r4,r5}
        0x0000030e:    2401        .$      MOVS     r4,#1
        0x00000310:    07e4        ..      LSLS     r4,r4,#31
        0x00000312:    4063        c@      EORS     r3,r3,r4
        0x00000314:    bc30        0.      POP      {r4,r5}
        0x00000316:    e755        U.      B        __aeabi_dadd ; 0x1c4
    __aeabi_drsub
        0x00000318:    b430        0.      PUSH     {r4,r5}
        0x0000031a:    2401        .$      MOVS     r4,#1
        0x0000031c:    07e4        ..      LSLS     r4,r4,#31
        0x0000031e:    4061        a@      EORS     r1,r1,r4
        0x00000320:    bc30        0.      POP      {r4,r5}
        0x00000322:    e74f        O.      B        __aeabi_dadd ; 0x1c4
    $d
        0x00000324:    ffe00000    ....    DCD    4292870144
    $t
    .text
    __aeabi_dmul
        0x00000328:    b5f0        ..      PUSH     {r4-r7,lr}
        0x0000032a:    b41f        ..      PUSH     {r0-r4}
        0x0000032c:    b088        ..      SUB      sp,sp,#0x20
        0x0000032e:    990b        ..      LDR      r1,[sp,#0x2c]
        0x00000330:    9809        ..      LDR      r0,[sp,#0x24]
        0x00000332:    2400        .$      MOVS     r4,#0
        0x00000334:    4048        H@      EORS     r0,r0,r1
        0x00000336:    9909        ..      LDR      r1,[sp,#0x24]
        0x00000338:    0fc0        ..      LSRS     r0,r0,#31
        0x0000033a:    0049        I.      LSLS     r1,r1,#1
        0x0000033c:    0849        I.      LSRS     r1,r1,#1
        0x0000033e:    9109        ..      STR      r1,[sp,#0x24]
        0x00000340:    07c0        ..      LSLS     r0,r0,#31
        0x00000342:    990b        ..      LDR      r1,[sp,#0x2c]
        0x00000344:    9000        ..      STR      r0,[sp,#0]
        0x00000346:    0049        I.      LSLS     r1,r1,#1
        0x00000348:    0849        I.      LSRS     r1,r1,#1
        0x0000034a:    910b        ..      STR      r1,[sp,#0x2c]
        0x0000034c:    9909        ..      LDR      r1,[sp,#0x24]
        0x0000034e:    9808        ..      LDR      r0,[sp,#0x20]
        0x00000350:    46a6        .F      MOV      lr,r4
        0x00000352:    4308        .C      ORRS     r0,r0,r1
        0x00000354:    d01c        ..      BEQ      0x390 ; __aeabi_dmul + 104
        0x00000356:    990b        ..      LDR      r1,[sp,#0x2c]
        0x00000358:    980a        ..      LDR      r0,[sp,#0x28]
        0x0000035a:    4308        .C      ORRS     r0,r0,r1
        0x0000035c:    d018        ..      BEQ      0x390 ; __aeabi_dmul + 104
        0x0000035e:    9809        ..      LDR      r0,[sp,#0x24]
        0x00000360:    2401        .$      MOVS     r4,#1
        0x00000362:    0040        @.      LSLS     r0,r0,#1
        0x00000364:    0d42        B.      LSRS     r2,r0,#21
        0x00000366:    0048        H.      LSLS     r0,r1,#1
        0x00000368:    0d41        A.      LSRS     r1,r0,#21
        0x0000036a:    9809        ..      LDR      r0,[sp,#0x24]
        0x0000036c:    0524        $.      LSLS     r4,r4,#20
        0x0000036e:    0300        ..      LSLS     r0,r0,#12
        0x00000370:    0b00        ..      LSRS     r0,r0,#12
        0x00000372:    4320         C      ORRS     r0,r0,r4
        0x00000374:    9009        ..      STR      r0,[sp,#0x24]
        0x00000376:    980b        ..      LDR      r0,[sp,#0x2c]
        0x00000378:    0300        ..      LSLS     r0,r0,#12
        0x0000037a:    0b00        ..      LSRS     r0,r0,#12
        0x0000037c:    4320         C      ORRS     r0,r0,r4
        0x0000037e:    900b        ..      STR      r0,[sp,#0x2c]
        0x00000380:    1850        P.      ADDS     r0,r2,r1
        0x00000382:    491c        .I      LDR      r1,[pc,#112] ; [0x3f4] = 0xfffffc0d
        0x00000384:    1840        @.      ADDS     r0,r0,r1
        0x00000386:    2200        ."      MOVS     r2,#0
        0x00000388:    9001        ..      STR      r0,[sp,#4]
        0x0000038a:    4614        .F      MOV      r4,r2
        0x0000038c:    4610        .F      MOV      r0,r2
        0x0000038e:    e005        ..      B        0x39c ; __aeabi_dmul + 116
        0x00000390:    2000        .       MOVS     r0,#0
        0x00000392:    4601        .F      MOV      r1,r0
        0x00000394:    b00d        ..      ADD      sp,sp,#0x34
        0x00000396:    bdf0        ..      POP      {r4-r7,pc}
        0x00000398:    2803        .(      CMP      r0,#3
        0x0000039a:    da01        ..      BGE      0x3a0 ; __aeabi_dmul + 120
        0x0000039c:    4603        .F      MOV      r3,r0
        0x0000039e:    e000        ..      B        0x3a2 ; __aeabi_dmul + 122
        0x000003a0:    2303        .#      MOVS     r3,#3
        0x000003a2:    469c        .F      MOV      r12,r3
        0x000003a4:    1ac1        ..      SUBS     r1,r0,r3
        0x000003a6:    ae0a        ..      ADD      r6,sp,#0x28
        0x000003a8:    e00a        ..      B        0x3c0 ; __aeabi_dmul + 152
        0x000003aa:    005f        _.      LSLS     r7,r3,#1
        0x000003ac:    ad08        ..      ADD      r5,sp,#0x20
        0x000003ae:    5bed        .[      LDRH     r5,[r5,r7]
        0x000003b0:    004f        O.      LSLS     r7,r1,#1
        0x000003b2:    5bf7        .[      LDRH     r7,[r6,r7]
        0x000003b4:    437d        }C      MULS     r5,r7,r5
        0x000003b6:    2700        .'      MOVS     r7,#0
        0x000003b8:    18aa        ..      ADDS     r2,r5,r2
        0x000003ba:    417c        |A      ADCS     r4,r4,r7
        0x000003bc:    1c49        I.      ADDS     r1,r1,#1
        0x000003be:    1e5b        [.      SUBS     r3,r3,#1
        0x000003c0:    4561        aE      CMP      r1,r12
        0x000003c2:    ddf2        ..      BLE      0x3aa ; __aeabi_dmul + 130
        0x000003c4:    0041        A.      LSLS     r1,r0,#1
        0x000003c6:    ab04        ..      ADD      r3,sp,#0x10
        0x000003c8:    525a        ZR      STRH     r2,[r3,r1]
        0x000003ca:    0421        !.      LSLS     r1,r4,#16
        0x000003cc:    0c12        ..      LSRS     r2,r2,#16
        0x000003ce:    430a        .C      ORRS     r2,r2,r1
        0x000003d0:    0c24        $.      LSRS     r4,r4,#16
        0x000003d2:    1c40        @.      ADDS     r0,r0,#1
        0x000003d4:    2808        .(      CMP      r0,#8
        0x000003d6:    dbdf        ..      BLT      0x398 ; __aeabi_dmul + 112
        0x000003d8:    9801        ..      LDR      r0,[sp,#4]
        0x000003da:    9002        ..      STR      r0,[sp,#8]
        0x000003dc:    9900        ..      LDR      r1,[sp,#0]
        0x000003de:    4670        pF      MOV      r0,lr
        0x000003e0:    9101        ..      STR      r1,[sp,#4]
        0x000003e2:    9000        ..      STR      r0,[sp,#0]
        0x000003e4:    9b05        ..      LDR      r3,[sp,#0x14]
        0x000003e6:    9a04        ..      LDR      r2,[sp,#0x10]
        0x000003e8:    9907        ..      LDR      r1,[sp,#0x1c]
        0x000003ea:    9806        ..      LDR      r0,[sp,#0x18]
        0x000003ec:    f000f947    ..G.    BL       _double_epilogue ; 0x67e
        0x000003f0:    e7d0        ..      B        0x394 ; __aeabi_dmul + 108
    $d
        0x000003f2:    0000        ..      DCW    0
        0x000003f4:    fffffc0d    ....    DCD    4294966285
    $t
    .text
    __aeabi_ddiv
        0x000003f8:    b5f0        ..      PUSH     {r4-r7,lr}
        0x000003fa:    460c        .F      MOV      r4,r1
        0x000003fc:    405c        \@      EORS     r4,r4,r3
        0x000003fe:    b085        ..      SUB      sp,sp,#0x14
        0x00000400:    0fe4        ..      LSRS     r4,r4,#31
        0x00000402:    07e4        ..      LSLS     r4,r4,#31
        0x00000404:    9403        ..      STR      r4,[sp,#0xc]
        0x00000406:    004c        L.      LSLS     r4,r1,#1
        0x00000408:    2600        .&      MOVS     r6,#0
        0x0000040a:    0864        d.      LSRS     r4,r4,#1
        0x0000040c:    0059        Y.      LSLS     r1,r3,#1
        0x0000040e:    4694        .F      MOV      r12,r2
        0x00000410:    0849        I.      LSRS     r1,r1,#1
        0x00000412:    4602        .F      MOV      r2,r0
        0x00000414:    9602        ..      STR      r6,[sp,#8]
        0x00000416:    4322        "C      ORRS     r2,r2,r4
        0x00000418:    d021        !.      BEQ      0x45e ; __aeabi_ddiv + 102
        0x0000041a:    4662        bF      MOV      r2,r12
        0x0000041c:    430a        .C      ORRS     r2,r2,r1
        0x0000041e:    d01e        ..      BEQ      0x45e ; __aeabi_ddiv + 102
        0x00000420:    0062        b.      LSLS     r2,r4,#1
        0x00000422:    0d57        W.      LSRS     r7,r2,#21
        0x00000424:    004a        J.      LSLS     r2,r1,#1
        0x00000426:    030e        ..      LSLS     r6,r1,#12
        0x00000428:    0323        #.      LSLS     r3,r4,#12
        0x0000042a:    0d55        U.      LSRS     r5,r2,#21
        0x0000042c:    2401        .$      MOVS     r4,#1
        0x0000042e:    4602        .F      MOV      r2,r0
        0x00000430:    492c        ,I      LDR      r1,[pc,#176] ; [0x4e4] = 0x3fd
        0x00000432:    0524        $.      LSLS     r4,r4,#20
        0x00000434:    1b78        x.      SUBS     r0,r7,r5
        0x00000436:    0b1b        ..      LSRS     r3,r3,#12
        0x00000438:    0b36        6.      LSRS     r6,r6,#12
        0x0000043a:    1840        @.      ADDS     r0,r0,r1
        0x0000043c:    4323        #C      ORRS     r3,r3,r4
        0x0000043e:    4326        &C      ORRS     r6,r6,r4
        0x00000440:    4661        aF      MOV      r1,r12
        0x00000442:    9000        ..      STR      r0,[sp,#0]
        0x00000444:    461c        .F      MOV      r4,r3
        0x00000446:    1a50        P.      SUBS     r0,r2,r1
        0x00000448:    41b4        .A      SBCS     r4,r4,r6
        0x0000044a:    d303        ..      BCC      0x454 ; __aeabi_ddiv + 92
        0x0000044c:    9800        ..      LDR      r0,[sp,#0]
        0x0000044e:    1c40        @.      ADDS     r0,r0,#1
        0x00000450:    9000        ..      STR      r0,[sp,#0]
        0x00000452:    e002        ..      B        0x45a ; __aeabi_ddiv + 98
        0x00000454:    1892        ..      ADDS     r2,r2,r2
        0x00000456:    9800        ..      LDR      r0,[sp,#0]
        0x00000458:    415b        [A      ADCS     r3,r3,r3
        0x0000045a:    2800        .(      CMP      r0,#0
        0x0000045c:    da03        ..      BGE      0x466 ; __aeabi_ddiv + 110
        0x0000045e:    2000        .       MOVS     r0,#0
        0x00000460:    4601        .F      MOV      r1,r0
        0x00000462:    b005        ..      ADD      sp,sp,#0x14
        0x00000464:    bdf0        ..      POP      {r4-r7,pc}
        0x00000466:    2000        .       MOVS     r0,#0
        0x00000468:    2101        .!      MOVS     r1,#1
        0x0000046a:    0509        ..      LSLS     r1,r1,#20
        0x0000046c:    4607        .F      MOV      r7,r0
        0x0000046e:    4686        .F      MOV      lr,r0
        0x00000470:    e011        ..      B        0x496 ; __aeabi_ddiv + 158
        0x00000472:    4664        dF      MOV      r4,r12
        0x00000474:    461d        .F      MOV      r5,r3
        0x00000476:    1b14        ..      SUBS     r4,r2,r4
        0x00000478:    41b5        .A      SBCS     r5,r5,r6
        0x0000047a:    d306        ..      BCC      0x48a ; __aeabi_ddiv + 146
        0x0000047c:    4665        eF      MOV      r5,r12
        0x0000047e:    1b52        R.      SUBS     r2,r2,r5
        0x00000480:    41b3        .A      SBCS     r3,r3,r6
        0x00000482:    4674        tF      MOV      r4,lr
        0x00000484:    4307        .C      ORRS     r7,r7,r0
        0x00000486:    430c        .C      ORRS     r4,r4,r1
        0x00000488:    46a6        .F      MOV      lr,r4
        0x0000048a:    07cd        ..      LSLS     r5,r1,#31
        0x0000048c:    0840        @.      LSRS     r0,r0,#1
        0x0000048e:    0849        I.      LSRS     r1,r1,#1
        0x00000490:    4328        (C      ORRS     r0,r0,r5
        0x00000492:    1892        ..      ADDS     r2,r2,r2
        0x00000494:    415b        [A      ADCS     r3,r3,r3
        0x00000496:    4605        .F      MOV      r5,r0
        0x00000498:    430d        .C      ORRS     r5,r5,r1
        0x0000049a:    d1ea        ..      BNE      0x472 ; __aeabi_ddiv + 122
        0x0000049c:    4610        .F      MOV      r0,r2
        0x0000049e:    4318        .C      ORRS     r0,r0,r3
        0x000004a0:    d013        ..      BEQ      0x4ca ; __aeabi_ddiv + 210
        0x000004a2:    4660        `F      MOV      r0,r12
        0x000004a4:    4619        .F      MOV      r1,r3
        0x000004a6:    4050        P@      EORS     r0,r0,r2
        0x000004a8:    4071        q@      EORS     r1,r1,r6
        0x000004aa:    4308        .C      ORRS     r0,r0,r1
        0x000004ac:    d006        ..      BEQ      0x4bc ; __aeabi_ddiv + 196
        0x000004ae:    4660        `F      MOV      r0,r12
        0x000004b0:    1a10        ..      SUBS     r0,r2,r0
        0x000004b2:    41b3        .A      SBCS     r3,r3,r6
        0x000004b4:    d206        ..      BCS      0x4c4 ; __aeabi_ddiv + 204
        0x000004b6:    2201        ."      MOVS     r2,#1
        0x000004b8:    2300        .#      MOVS     r3,#0
        0x000004ba:    e006        ..      B        0x4ca ; __aeabi_ddiv + 210
        0x000004bc:    2200        ."      MOVS     r2,#0
        0x000004be:    2301        .#      MOVS     r3,#1
        0x000004c0:    07db        ..      LSLS     r3,r3,#31
        0x000004c2:    e002        ..      B        0x4ca ; __aeabi_ddiv + 210
        0x000004c4:    2201        ."      MOVS     r2,#1
        0x000004c6:    43d2        .C      MVNS     r2,r2
        0x000004c8:    1053        S.      ASRS     r3,r2,#1
        0x000004ca:    9800        ..      LDR      r0,[sp,#0]
        0x000004cc:    4674        tF      MOV      r4,lr
        0x000004ce:    0501        ..      LSLS     r1,r0,#20
        0x000004d0:    1c38        8.      ADDS     r0,r7,#0
        0x000004d2:    4161        aA      ADCS     r1,r1,r4
        0x000004d4:    9c02        ..      LDR      r4,[sp,#8]
        0x000004d6:    9d03        ..      LDR      r5,[sp,#0xc]
        0x000004d8:    1900        ..      ADDS     r0,r0,r4
        0x000004da:    4169        iA      ADCS     r1,r1,r5
        0x000004dc:    f000f8c2    ....    BL       _double_round ; 0x664
        0x000004e0:    e7bf        ..      B        0x462 ; __aeabi_ddiv + 106
    $d
        0x000004e2:    0000        ..      DCW    0
        0x000004e4:    000003fd    ....    DCD    1021
    $t
    .text
    __aeabi_i2d
        0x000004e8:    b50e        ..      PUSH     {r1-r3,lr}
        0x000004ea:    17c2        ..      ASRS     r2,r0,#31
        0x000004ec:    0fc1        ..      LSRS     r1,r0,#31
        0x000004ee:    4050        P@      EORS     r0,r0,r2
        0x000004f0:    07ca        ..      LSLS     r2,r1,#31
        0x000004f2:    1840        @.      ADDS     r0,r0,r1
        0x000004f4:    2100        .!      MOVS     r1,#0
        0x000004f6:    4b05        .K      LDR      r3,[pc,#20] ; [0x50c] = 0x433
        0x000004f8:    9302        ..      STR      r3,[sp,#8]
        0x000004fa:    9201        ..      STR      r2,[sp,#4]
        0x000004fc:    9100        ..      STR      r1,[sp,#0]
        0x000004fe:    460a        .F      MOV      r2,r1
        0x00000500:    460b        .F      MOV      r3,r1
        0x00000502:    f000f8bc    ....    BL       _double_epilogue ; 0x67e
        0x00000506:    b003        ..      ADD      sp,sp,#0xc
        0x00000508:    bd00        ..      POP      {pc}
    $d
        0x0000050a:    0000        ..      DCW    0
        0x0000050c:    00000433    3...    DCD    1075
    $t
    .text
    __aeabi_f2iz
        0x00000510:    0fc2        ..      LSRS     r2,r0,#31
        0x00000512:    0041        A.      LSLS     r1,r0,#1
        0x00000514:    0240        @.      LSLS     r0,r0,#9
        0x00000516:    2301        .#      MOVS     r3,#1
        0x00000518:    0a40        @.      LSRS     r0,r0,#9
        0x0000051a:    05db        ..      LSLS     r3,r3,#23
        0x0000051c:    07d2        ..      LSLS     r2,r2,#31
        0x0000051e:    0e09        ..      LSRS     r1,r1,#24
        0x00000520:    18c0        ..      ADDS     r0,r0,r3
        0x00000522:    297f        .)      CMP      r1,#0x7f
        0x00000524:    da01        ..      BGE      0x52a ; __aeabi_f2iz + 26
        0x00000526:    2000        .       MOVS     r0,#0
        0x00000528:    4770        pG      BX       lr
        0x0000052a:    2996        .)      CMP      r1,#0x96
        0x0000052c:    dc03        ..      BGT      0x536 ; __aeabi_f2iz + 38
        0x0000052e:    2396        .#      MOVS     r3,#0x96
        0x00000530:    1a59        Y.      SUBS     r1,r3,r1
        0x00000532:    40c8        .@      LSRS     r0,r0,r1
        0x00000534:    e001        ..      B        0x53a ; __aeabi_f2iz + 42
        0x00000536:    3996        .9      SUBS     r1,r1,#0x96
        0x00000538:    4088        .@      LSLS     r0,r0,r1
        0x0000053a:    2a00        .*      CMP      r2,#0
        0x0000053c:    d0f4        ..      BEQ      0x528 ; __aeabi_f2iz + 24
        0x0000053e:    4240        @B      RSBS     r0,r0,#0
        0x00000540:    4770        pG      BX       lr
    .text
    __aeabi_d2f
        0x00000542:    0fcb        ..      LSRS     r3,r1,#31
        0x00000544:    07db        ..      LSLS     r3,r3,#31
        0x00000546:    0049        I.      LSLS     r1,r1,#1
        0x00000548:    b510        ..      PUSH     {r4,lr}
        0x0000054a:    0849        I.      LSRS     r1,r1,#1
        0x0000054c:    4602        .F      MOV      r2,r0
        0x0000054e:    430a        .C      ORRS     r2,r2,r1
        0x00000550:    d007        ..      BEQ      0x562 ; __aeabi_d2f + 32
        0x00000552:    0d0a        ..      LSRS     r2,r1,#20
        0x00000554:    2407        .$      MOVS     r4,#7
        0x00000556:    0309        ..      LSLS     r1,r1,#12
        0x00000558:    01e4        ..      LSLS     r4,r4,#7
        0x0000055a:    0b09        ..      LSRS     r1,r1,#12
        0x0000055c:    1b12        ..      SUBS     r2,r2,r4
        0x0000055e:    2a00        .*      CMP      r2,#0
        0x00000560:    dc01        ..      BGT      0x566 ; __aeabi_d2f + 36
        0x00000562:    2000        .       MOVS     r0,#0
        0x00000564:    bd10        ..      POP      {r4,pc}
        0x00000566:    00c9        ..      LSLS     r1,r1,#3
        0x00000568:    0f44        D.      LSRS     r4,r0,#29
        0x0000056a:    430c        .C      ORRS     r4,r4,r1
        0x0000056c:    00c1        ..      LSLS     r1,r0,#3
        0x0000056e:    18e0        ..      ADDS     r0,r4,r3
        0x00000570:    05d2        ..      LSLS     r2,r2,#23
        0x00000572:    1880        ..      ADDS     r0,r0,r2
        0x00000574:    f000f835    ..5.    BL       __I$use$fp ; 0x5e2
        0x00000578:    bd10        ..      POP      {r4,pc}
    .text
    __aeabi_llsl
    _ll_shift_l
        0x0000057a:    b510        ..      PUSH     {r4,lr}
        0x0000057c:    2a20         *      CMP      r2,#0x20
        0x0000057e:    db04        ..      BLT      0x58a ; __aeabi_llsl + 16
        0x00000580:    4601        .F      MOV      r1,r0
        0x00000582:    3a20         :      SUBS     r2,r2,#0x20
        0x00000584:    4091        .@      LSLS     r1,r1,r2
        0x00000586:    2000        .       MOVS     r0,#0
        0x00000588:    bd10        ..      POP      {r4,pc}
        0x0000058a:    4091        .@      LSLS     r1,r1,r2
        0x0000058c:    2320         #      MOVS     r3,#0x20
        0x0000058e:    1a9c        ..      SUBS     r4,r3,r2
        0x00000590:    4603        .F      MOV      r3,r0
        0x00000592:    40e3        .@      LSRS     r3,r3,r4
        0x00000594:    4319        .C      ORRS     r1,r1,r3
        0x00000596:    4090        .@      LSLS     r0,r0,r2
        0x00000598:    bd10        ..      POP      {r4,pc}
    .text
    __aeabi_llsr
    _ll_ushift_r
        0x0000059a:    b510        ..      PUSH     {r4,lr}
        0x0000059c:    2a20         *      CMP      r2,#0x20
        0x0000059e:    db04        ..      BLT      0x5aa ; __aeabi_llsr + 16
        0x000005a0:    4608        .F      MOV      r0,r1
        0x000005a2:    3a20         :      SUBS     r2,r2,#0x20
        0x000005a4:    40d0        .@      LSRS     r0,r0,r2
        0x000005a6:    2100        .!      MOVS     r1,#0
        0x000005a8:    bd10        ..      POP      {r4,pc}
        0x000005aa:    460b        .F      MOV      r3,r1
        0x000005ac:    40d3        .@      LSRS     r3,r3,r2
        0x000005ae:    40d0        .@      LSRS     r0,r0,r2
        0x000005b0:    2420         $      MOVS     r4,#0x20
        0x000005b2:    1aa2        ..      SUBS     r2,r4,r2
        0x000005b4:    4091        .@      LSLS     r1,r1,r2
        0x000005b6:    4308        .C      ORRS     r0,r0,r1
        0x000005b8:    4619        .F      MOV      r1,r3
        0x000005ba:    bd10        ..      POP      {r4,pc}
    .text
    __aeabi_lasr
    _ll_sshift_r
        0x000005bc:    b510        ..      PUSH     {r4,lr}
        0x000005be:    2a20         *      CMP      r2,#0x20
        0x000005c0:    db06        ..      BLT      0x5d0 ; __aeabi_lasr + 20
        0x000005c2:    17cb        ..      ASRS     r3,r1,#31
        0x000005c4:    4608        .F      MOV      r0,r1
        0x000005c6:    3a20         :      SUBS     r2,r2,#0x20
        0x000005c8:    4110        .A      ASRS     r0,r0,r2
        0x000005ca:    17c1        ..      ASRS     r1,r0,#31
        0x000005cc:    430b        .C      ORRS     r3,r3,r1
        0x000005ce:    e006        ..      B        0x5de ; __aeabi_lasr + 34
        0x000005d0:    460b        .F      MOV      r3,r1
        0x000005d2:    4113        .A      ASRS     r3,r3,r2
        0x000005d4:    40d0        .@      LSRS     r0,r0,r2
        0x000005d6:    2420         $      MOVS     r4,#0x20
        0x000005d8:    1aa2        ..      SUBS     r2,r4,r2
        0x000005da:    4091        .@      LSLS     r1,r1,r2
        0x000005dc:    4308        .C      ORRS     r0,r0,r1
        0x000005de:    4619        .F      MOV      r1,r3
        0x000005e0:    bd10        ..      POP      {r4,pc}
    .text
    .text
    __I$use$fp
    _float_round
        0x000005e2:    2900        .)      CMP      r1,#0
        0x000005e4:    da04        ..      BGE      0x5f0 ; __I$use$fp + 14
        0x000005e6:    1c40        @.      ADDS     r0,r0,#1
        0x000005e8:    0049        I.      LSLS     r1,r1,#1
        0x000005ea:    d101        ..      BNE      0x5f0 ; __I$use$fp + 14
        0x000005ec:    0840        @.      LSRS     r0,r0,#1
        0x000005ee:    0040        @.      LSLS     r0,r0,#1
        0x000005f0:    4770        pG      BX       lr
    _float_epilogue
        0x000005f2:    b470        p.      PUSH     {r4-r6}
        0x000005f4:    2400        .$      MOVS     r4,#0
        0x000005f6:    0c05        ..      LSRS     r5,r0,#16
        0x000005f8:    d105        ..      BNE      0x606 ; _float_epilogue + 20
        0x000005fa:    2410        .$      MOVS     r4,#0x10
        0x000005fc:    0400        ..      LSLS     r0,r0,#16
        0x000005fe:    d102        ..      BNE      0x606 ; _float_epilogue + 20
        0x00000600:    2900        .)      CMP      r1,#0
        0x00000602:    d021        !.      BEQ      0x648 ; _float_epilogue + 86
        0x00000604:    2411        .$      MOVS     r4,#0x11
        0x00000606:    0e05        ..      LSRS     r5,r0,#24
        0x00000608:    d101        ..      BNE      0x60e ; _float_epilogue + 28
        0x0000060a:    0200        ..      LSLS     r0,r0,#8
        0x0000060c:    3408        .4      ADDS     r4,r4,#8
        0x0000060e:    0f05        ..      LSRS     r5,r0,#28
        0x00000610:    d101        ..      BNE      0x616 ; _float_epilogue + 36
        0x00000612:    0100        ..      LSLS     r0,r0,#4
        0x00000614:    1d24        $.      ADDS     r4,r4,#4
        0x00000616:    0f85        ..      LSRS     r5,r0,#30
        0x00000618:    d101        ..      BNE      0x61e ; _float_epilogue + 44
        0x0000061a:    0080        ..      LSLS     r0,r0,#2
        0x0000061c:    1ca4        ..      ADDS     r4,r4,#2
        0x0000061e:    2800        .(      CMP      r0,#0
        0x00000620:    db01        ..      BLT      0x626 ; _float_epilogue + 52
        0x00000622:    0040        @.      LSLS     r0,r0,#1
        0x00000624:    1c64        d.      ADDS     r4,r4,#1
        0x00000626:    2900        .)      CMP      r1,#0
        0x00000628:    d008        ..      BEQ      0x63c ; _float_epilogue + 74
        0x0000062a:    2520         %      MOVS     r5,#0x20
        0x0000062c:    1b2e        ..      SUBS     r6,r5,r4
        0x0000062e:    460d        .F      MOV      r5,r1
        0x00000630:    40f5        .@      LSRS     r5,r5,r6
        0x00000632:    40a1        .@      LSLS     r1,r1,r4
        0x00000634:    d000        ..      BEQ      0x638 ; _float_epilogue + 70
        0x00000636:    2101        .!      MOVS     r1,#1
        0x00000638:    4329        )C      ORRS     r1,r1,r5
        0x0000063a:    4308        .C      ORRS     r0,r0,r1
        0x0000063c:    0601        ..      LSLS     r1,r0,#24
        0x0000063e:    1b1b        ..      SUBS     r3,r3,r4
        0x00000640:    0a00        ..      LSRS     r0,r0,#8
        0x00000642:    1ddb        ..      ADDS     r3,r3,#7
        0x00000644:    d502        ..      BPL      0x64c ; _float_epilogue + 90
        0x00000646:    2000        .       MOVS     r0,#0
        0x00000648:    bc70        p.      POP      {r4-r6}
        0x0000064a:    4770        pG      BX       lr
        0x0000064c:    05db        ..      LSLS     r3,r3,#23
        0x0000064e:    1818        ..      ADDS     r0,r3,r0
        0x00000650:    1880        ..      ADDS     r0,r0,r2
        0x00000652:    2900        .)      CMP      r1,#0
        0x00000654:    daf8        ..      BGE      0x648 ; _float_epilogue + 86
        0x00000656:    1c40        @.      ADDS     r0,r0,#1
        0x00000658:    0049        I.      LSLS     r1,r1,#1
        0x0000065a:    d1f5        ..      BNE      0x648 ; _float_epilogue + 86
        0x0000065c:    bc70        p.      POP      {r4-r6}
        0x0000065e:    0840        @.      LSRS     r0,r0,#1
        0x00000660:    0040        @.      LSLS     r0,r0,#1
        0x00000662:    4770        pG      BX       lr
    .text
    _double_round
        0x00000664:    b510        ..      PUSH     {r4,lr}
        0x00000666:    2b00        .+      CMP      r3,#0
        0x00000668:    da08        ..      BGE      0x67c ; _double_round + 24
        0x0000066a:    2400        .$      MOVS     r4,#0
        0x0000066c:    1c40        @.      ADDS     r0,r0,#1
        0x0000066e:    4161        aA      ADCS     r1,r1,r4
        0x00000670:    1892        ..      ADDS     r2,r2,r2
        0x00000672:    415b        [A      ADCS     r3,r3,r3
        0x00000674:    431a        .C      ORRS     r2,r2,r3
        0x00000676:    d101        ..      BNE      0x67c ; _double_round + 24
        0x00000678:    0840        @.      LSRS     r0,r0,#1
        0x0000067a:    0040        @.      LSLS     r0,r0,#1
        0x0000067c:    bd10        ..      POP      {r4,pc}
    _double_epilogue
        0x0000067e:    b5f0        ..      PUSH     {r4-r7,lr}
        0x00000680:    b41f        ..      PUSH     {r0-r4}
        0x00000682:    b082        ..      SUB      sp,sp,#8
        0x00000684:    4605        .F      MOV      r5,r0
        0x00000686:    000c        ..      MOVS     r4,r1
        0x00000688:    d003        ..      BEQ      0x692 ; _double_epilogue + 20
        0x0000068a:    4608        .F      MOV      r0,r1
        0x0000068c:    f001fb28    ..(.    BL       __ARM_clz ; 0x1ce0
        0x00000690:    e002        ..      B        0x698 ; _double_epilogue + 26
        0x00000692:    f001fb25    ..%.    BL       __ARM_clz ; 0x1ce0
        0x00000696:    3020         0      ADDS     r0,r0,#0x20
        0x00000698:    4602        .F      MOV      r2,r0
        0x0000069a:    9000        ..      STR      r0,[sp,#0]
        0x0000069c:    4621        !F      MOV      r1,r4
        0x0000069e:    4628        (F      MOV      r0,r5
        0x000006a0:    f7ffff6b    ..k.    BL       __aeabi_llsl ; 0x57a
        0x000006a4:    9b04        ..      LDR      r3,[sp,#0x10]
        0x000006a6:    9a05        ..      LDR      r2,[sp,#0x14]
        0x000006a8:    4604        .F      MOV      r4,r0
        0x000006aa:    460f        .F      MOV      r7,r1
        0x000006ac:    4318        .C      ORRS     r0,r0,r3
        0x000006ae:    4311        .C      ORRS     r1,r1,r2
        0x000006b0:    4308        .C      ORRS     r0,r0,r1
        0x000006b2:    d014        ..      BEQ      0x6de ; _double_epilogue + 96
        0x000006b4:    4618        .F      MOV      r0,r3
        0x000006b6:    4310        .C      ORRS     r0,r0,r2
        0x000006b8:    d01b        ..      BEQ      0x6f2 ; _double_epilogue + 116
        0x000006ba:    9800        ..      LDR      r0,[sp,#0]
        0x000006bc:    2140        @!      MOVS     r1,#0x40
        0x000006be:    1a0a        ..      SUBS     r2,r1,r0
        0x000006c0:    4618        .F      MOV      r0,r3
        0x000006c2:    9905        ..      LDR      r1,[sp,#0x14]
        0x000006c4:    f7ffff69    ..i.    BL       __aeabi_llsr ; 0x59a
        0x000006c8:    4605        .F      MOV      r5,r0
        0x000006ca:    460e        .F      MOV      r6,r1
        0x000006cc:    9a00        ..      LDR      r2,[sp,#0]
        0x000006ce:    9905        ..      LDR      r1,[sp,#0x14]
        0x000006d0:    9804        ..      LDR      r0,[sp,#0x10]
        0x000006d2:    f7ffff52    ..R.    BL       __aeabi_llsl ; 0x57a
        0x000006d6:    4308        .C      ORRS     r0,r0,r1
        0x000006d8:    d005        ..      BEQ      0x6e6 ; _double_epilogue + 104
        0x000006da:    2001        .       MOVS     r0,#1
        0x000006dc:    e004        ..      B        0x6e8 ; _double_epilogue + 106
        0x000006de:    4620         F      MOV      r0,r4
        0x000006e0:    4639        9F      MOV      r1,r7
        0x000006e2:    b007        ..      ADD      sp,sp,#0x1c
        0x000006e4:    bdf0        ..      POP      {r4-r7,pc}
        0x000006e6:    2000        .       MOVS     r0,#0
        0x000006e8:    17c1        ..      ASRS     r1,r0,#31
        0x000006ea:    4305        .C      ORRS     r5,r5,r0
        0x000006ec:    430e        .C      ORRS     r6,r6,r1
        0x000006ee:    432c        ,C      ORRS     r4,r4,r5
        0x000006f0:    4337        7C      ORRS     r7,r7,r6
        0x000006f2:    9900        ..      LDR      r1,[sp,#0]
        0x000006f4:    980e        ..      LDR      r0,[sp,#0x38]
        0x000006f6:    0563        c.      LSLS     r3,r4,#21
        0x000006f8:    1a40        @.      SUBS     r0,r0,r1
        0x000006fa:    0579        y.      LSLS     r1,r7,#21
        0x000006fc:    0ae4        ..      LSRS     r4,r4,#11
        0x000006fe:    2200        ."      MOVS     r2,#0
        0x00000700:    430c        .C      ORRS     r4,r4,r1
        0x00000702:    0afd        ..      LSRS     r5,r7,#11
        0x00000704:    300a        .0      ADDS     r0,r0,#0xa
        0x00000706:    d502        ..      BPL      0x70e ; _double_epilogue + 144
        0x00000708:    2000        .       MOVS     r0,#0
        0x0000070a:    4601        .F      MOV      r1,r0
        0x0000070c:    e7e9        ..      B        0x6e2 ; _double_epilogue + 100
        0x0000070e:    0501        ..      LSLS     r1,r0,#20
        0x00000710:    1910        ..      ADDS     r0,r2,r4
        0x00000712:    4169        iA      ADCS     r1,r1,r5
        0x00000714:    9c0c        ..      LDR      r4,[sp,#0x30]
        0x00000716:    9d0d        ..      LDR      r5,[sp,#0x34]
        0x00000718:    1900        ..      ADDS     r0,r0,r4
        0x0000071a:    4169        iA      ADCS     r1,r1,r5
        0x0000071c:    f7ffffa2    ....    BL       _double_round ; 0x664
        0x00000720:    e7df        ..      B        0x6e2 ; _double_epilogue + 100
    .text
    __ARM_scalbn
    scalbn
        0x00000722:    b570        p.      PUSH     {r4-r6,lr}
        0x00000724:    004b        K.      LSLS     r3,r1,#1
        0x00000726:    085b        [.      LSRS     r3,r3,#1
        0x00000728:    4303        .C      ORRS     r3,r3,r0
        0x0000072a:    d00b        ..      BEQ      0x744 ; __ARM_scalbn + 34
        0x0000072c:    004b        K.      LSLS     r3,r1,#1
        0x0000072e:    0d5c        \.      LSRS     r4,r3,#21
        0x00000730:    2600        .&      MOVS     r6,#0
        0x00000732:    4633        3F      MOV      r3,r6
        0x00000734:    4265        eB      RSBS     r5,r4,#0
        0x00000736:    41b3        .A      SBCS     r3,r3,r6
        0x00000738:    17d4        ..      ASRS     r4,r2,#31
        0x0000073a:    1aad        ..      SUBS     r5,r5,r2
        0x0000073c:    41a3        .A      SBCS     r3,r3,r4
        0x0000073e:    db02        ..      BLT      0x746 ; __ARM_scalbn + 36
        0x00000740:    2000        .       MOVS     r0,#0
        0x00000742:    4601        .F      MOV      r1,r0
        0x00000744:    bd70        p.      POP      {r4-r6,pc}
        0x00000746:    0512        ..      LSLS     r2,r2,#20
        0x00000748:    1830        0.      ADDS     r0,r6,r0
        0x0000074a:    4151        QA      ADCS     r1,r1,r2
        0x0000074c:    bd70        p.      POP      {r4-r6,pc}
    .text
    _dsqrt
        0x0000074e:    b5fe        ..      PUSH     {r1-r7,lr}
        0x00000750:    2300        .#      MOVS     r3,#0
        0x00000752:    461a        .F      MOV      r2,r3
        0x00000754:    1a1b        ..      SUBS     r3,r3,r0
        0x00000756:    418a        .A      SBCS     r2,r2,r1
        0x00000758:    db03        ..      BLT      0x762 ; _dsqrt + 20
        0x0000075a:    2000        .       MOVS     r0,#0
        0x0000075c:    4601        .F      MOV      r1,r0
        0x0000075e:    b003        ..      ADD      sp,sp,#0xc
        0x00000760:    bdf0        ..      POP      {r4-r7,pc}
        0x00000762:    004a        J.      LSLS     r2,r1,#1
        0x00000764:    030d        ..      LSLS     r5,r1,#12
        0x00000766:    2101        .!      MOVS     r1,#1
        0x00000768:    0b2d        -.      LSRS     r5,r5,#12
        0x0000076a:    0509        ..      LSLS     r1,r1,#20
        0x0000076c:    0d52        R.      LSRS     r2,r2,#21
        0x0000076e:    430d        .C      ORRS     r5,r5,r1
        0x00000770:    07d1        ..      LSLS     r1,r2,#31
        0x00000772:    d102        ..      BNE      0x77a ; _dsqrt + 44
        0x00000774:    1800        ..      ADDS     r0,r0,r0
        0x00000776:    416d        mA      ADCS     r5,r5,r5
        0x00000778:    1e52        R.      SUBS     r2,r2,#1
        0x0000077a:    1051        Q.      ASRS     r1,r2,#1
        0x0000077c:    31ff        .1      ADDS     r1,r1,#0xff
        0x0000077e:    31ff        .1      ADDS     r1,r1,#0xff
        0x00000780:    3101        .1      ADDS     r1,#1
        0x00000782:    2700        .'      MOVS     r7,#0
        0x00000784:    4604        .F      MOV      r4,r0
        0x00000786:    463e        >F      MOV      r6,r7
        0x00000788:    4638        8F      MOV      r0,r7
        0x0000078a:    9700        ..      STR      r7,[sp,#0]
        0x0000078c:    9101        ..      STR      r1,[sp,#4]
        0x0000078e:    4602        .F      MOV      r2,r0
        0x00000790:    2101        .!      MOVS     r1,#1
        0x00000792:    2000        .       MOVS     r0,#0
        0x00000794:    0509        ..      LSLS     r1,r1,#20
        0x00000796:    f7ffff00    ....    BL       __aeabi_llsr ; 0x59a
        0x0000079a:    19c3        ..      ADDS     r3,r0,r7
        0x0000079c:    4171        qA      ADCS     r1,r1,r6
        0x0000079e:    18f8        ..      ADDS     r0,r7,r3
        0x000007a0:    4632        2F      MOV      r2,r6
        0x000007a2:    4684        .F      MOV      r12,r0
        0x000007a4:    468e        .F      MOV      lr,r1
        0x000007a6:    414a        JA      ADCS     r2,r2,r1
        0x000007a8:    4661        aF      MOV      r1,r12
        0x000007aa:    4628        (F      MOV      r0,r5
        0x000007ac:    1a61        a.      SUBS     r1,r4,r1
        0x000007ae:    4190        .A      SBCS     r0,r0,r2
        0x000007b0:    d304        ..      BCC      0x7bc ; _dsqrt + 110
        0x000007b2:    4660        `F      MOV      r0,r12
        0x000007b4:    1a24        $.      SUBS     r4,r4,r0
        0x000007b6:    4195        .A      SBCS     r5,r5,r2
        0x000007b8:    4676        vF      MOV      r6,lr
        0x000007ba:    461f        .F      MOV      r7,r3
        0x000007bc:    1924        $.      ADDS     r4,r4,r4
        0x000007be:    9800        ..      LDR      r0,[sp,#0]
        0x000007c0:    416d        mA      ADCS     r5,r5,r5
        0x000007c2:    1c40        @.      ADDS     r0,r0,#1
        0x000007c4:    9000        ..      STR      r0,[sp,#0]
        0x000007c6:    2834        4(      CMP      r0,#0x34
        0x000007c8:    dde1        ..      BLE      0x78e ; _dsqrt + 64
        0x000007ca:    19f9        ..      ADDS     r1,r7,r7
        0x000007cc:    4630        0F      MOV      r0,r6
        0x000007ce:    4170        pA      ADCS     r0,r0,r6
        0x000007d0:    1b09        ..      SUBS     r1,r1,r4
        0x000007d2:    41a8        .A      SBCS     r0,r0,r5
        0x000007d4:    d203        ..      BCS      0x7de ; _dsqrt + 144
        0x000007d6:    2200        ."      MOVS     r2,#0
        0x000007d8:    43d2        .C      MVNS     r2,r2
        0x000007da:    4613        .F      MOV      r3,r2
        0x000007dc:    e001        ..      B        0x7e2 ; _dsqrt + 148
        0x000007de:    2200        ."      MOVS     r2,#0
        0x000007e0:    4613        .F      MOV      r3,r2
        0x000007e2:    9801        ..      LDR      r0,[sp,#4]
        0x000007e4:    0501        ..      LSLS     r1,r0,#20
        0x000007e6:    1c38        8.      ADDS     r0,r7,#0
        0x000007e8:    4171        qA      ADCS     r1,r1,r6
        0x000007ea:    f7ffff3b    ..;.    BL       _double_round ; 0x664
        0x000007ee:    e7b6        ..      B        0x75e ; _dsqrt + 16
    .text
    __aeabi_cdrcmple
        0x000007f0:    b510        ..      PUSH     {r4,lr}
        0x000007f2:    2900        .)      CMP      r1,#0
        0x000007f4:    db04        ..      BLT      0x800 ; __aeabi_cdrcmple + 16
        0x000007f6:    2401        .$      MOVS     r4,#1
        0x000007f8:    07e4        ..      LSLS     r4,r4,#31
        0x000007fa:    4240        @B      RSBS     r0,r0,#0
        0x000007fc:    418c        .A      SBCS     r4,r4,r1
        0x000007fe:    4621        !F      MOV      r1,r4
        0x00000800:    2b00        .+      CMP      r3,#0
        0x00000802:    db04        ..      BLT      0x80e ; __aeabi_cdrcmple + 30
        0x00000804:    461c        .F      MOV      r4,r3
        0x00000806:    2301        .#      MOVS     r3,#1
        0x00000808:    07db        ..      LSLS     r3,r3,#31
        0x0000080a:    4252        RB      RSBS     r2,r2,#0
        0x0000080c:    41a3        .A      SBCS     r3,r3,r4
        0x0000080e:    4299        .B      CMP      r1,r3
        0x00000810:    d100        ..      BNE      0x814 ; __aeabi_cdrcmple + 36
        0x00000812:    4290        .B      CMP      r0,r2
        0x00000814:    bd10        ..      POP      {r4,pc}
    $d
        0x00000816:    0000        ..      DCW    0
    $t
    .text
    __scatterload
    __scatterload_rt2
        0x00000818:    4c06        .L      LDR      r4,[pc,#24] ; [0x834] = 0x3a18
        0x0000081a:    2501        .%      MOVS     r5,#1
        0x0000081c:    4e06        .N      LDR      r6,[pc,#24] ; [0x838] = 0x3a38
        0x0000081e:    e005        ..      B        0x82c ; __scatterload + 20
        0x00000820:    68e3        .h      LDR      r3,[r4,#0xc]
        0x00000822:    cc07        ..      LDM      r4!,{r0-r2}
        0x00000824:    432b        +C      ORRS     r3,r3,r5
        0x00000826:    3c0c        .<      SUBS     r4,r4,#0xc
        0x00000828:    4798        .G      BLX      r3
        0x0000082a:    3410        .4      ADDS     r4,r4,#0x10
        0x0000082c:    42b4        .B      CMP      r4,r6
        0x0000082e:    d3f7        ..      BCC      0x820 ; __scatterload + 8
        0x00000830:    f7fffc4a    ..J.    BL       __main_after_scatterload ; 0xc8
    $d
        0x00000834:    00003a18    .:..    DCD    14872
        0x00000838:    00003a38    8:..    DCD    14904
    $t
    i.ADC_Open
    .text
    .text
    ADC_Open
    __I$use$semihosting$fputc
    __semihosting_library_function
        0x0000083c:    b530        0.      PUSH     {r4,r5,lr}
        0x0000083e:    4808        .H      LDR      r0,[pc,#32] ; [0x860] = 0x400e0040
        0x00000840:    6884        .h      LDR      r4,[r0,#8]
        0x00000842:    1505        ..      ASRS     r5,r0,#20
        0x00000844:    43ac        .C      BICS     r4,r4,r5
        0x00000846:    430c        .C      ORRS     r4,r4,r1
        0x00000848:    6084        .`      STR      r4,[r0,#8]
        0x0000084a:    6881        .h      LDR      r1,[r0,#8]
        0x0000084c:    240c        .$      MOVS     r4,#0xc
        0x0000084e:    43a1        .C      BICS     r1,r1,r4
        0x00000850:    4311        .C      ORRS     r1,r1,r2
        0x00000852:    6081        .`      STR      r1,[r0,#8]
        0x00000854:    6881        .h      LDR      r1,[r0,#8]
        0x00000856:    03a2        ..      LSLS     r2,r4,#14
        0x00000858:    4391        .C      BICS     r1,r1,r2
        0x0000085a:    6081        .`      STR      r1,[r0,#8]
        0x0000085c:    60c3        .`      STR      r3,[r0,#0xc]
        0x0000085e:    bd30        0.      POP      {r4,r5,pc}
    $d
        0x00000860:    400e0040    @..@    DCD    1074659392
    $t
    i.CLK_EnableModuleClock
    CLK_EnableModuleClock
        0x00000864:    0fc1        ..      LSRS     r1,r0,#31
        0x00000866:    008a        ..      LSLS     r2,r1,#2
        0x00000868:    4904        .I      LDR      r1,[pc,#16] ; [0x87c] = 0x50000200
        0x0000086a:    1851        Q.      ADDS     r1,r2,r1
        0x0000086c:    684a        Jh      LDR      r2,[r1,#4]
        0x0000086e:    06c3        ..      LSLS     r3,r0,#27
        0x00000870:    0edb        ..      LSRS     r3,r3,#27
        0x00000872:    2001        .       MOVS     r0,#1
        0x00000874:    4098        .@      LSLS     r0,r0,r3
        0x00000876:    4302        .C      ORRS     r2,r2,r0
        0x00000878:    604a        J`      STR      r2,[r1,#4]
        0x0000087a:    4770        pG      BX       lr
    $d
        0x0000087c:    50000200    ...P    DCD    1342177792
    $t
    i.CLK_EnablePLL
    CLK_EnablePLL
        0x00000880:    b5f3        ..      PUSH     {r0,r1,r4-r7,lr}
        0x00000882:    4822        "H      LDR      r0,[pc,#136] ; [0x90c] = 0xf42400
        0x00000884:    b081        ..      SUB      sp,sp,#4
        0x00000886:    460f        .F      MOV      r7,r1
        0x00000888:    4281        .B      CMP      r1,r0
        0x0000088a:    d201        ..      BCS      0x890 ; CLK_EnablePLL + 16
        0x0000088c:    4607        .F      MOV      r7,r0
        0x0000088e:    e003        ..      B        0x898 ; CLK_EnablePLL + 24
        0x00000890:    491f        .I      LDR      r1,[pc,#124] ; [0x910] = 0x1e84800
        0x00000892:    428f        .B      CMP      r7,r1
        0x00000894:    d900        ..      BLS      0x898 ; CLK_EnablePLL + 24
        0x00000896:    460f        .F      MOV      r7,r1
        0x00000898:    2601        .&      MOVS     r6,#1
        0x0000089a:    9a01        ..      LDR      r2,[sp,#4]
        0x0000089c:    491d        .I      LDR      r1,[pc,#116] ; [0x914] = 0xb71b00
        0x0000089e:    0476        v.      LSLS     r6,r6,#17
        0x000008a0:    4d1d        .M      LDR      r5,[pc,#116] ; [0x918] = 0x50000200
        0x000008a2:    2a00        .*      CMP      r2,#0
        0x000008a4:    d015        ..      BEQ      0x8d2 ; CLK_EnablePLL + 82
        0x000008a6:    6a6a        jj      LDR      r2,[r5,#0x24]
        0x000008a8:    4332        2C      ORRS     r2,r2,r6
        0x000008aa:    626a        jb      STR      r2,[r5,#0x24]
        0x000008ac:    682a        *h      LDR      r2,[r5,#0]
        0x000008ae:    04d2        ..      LSLS     r2,r2,#19
        0x000008b0:    d400        ..      BMI      0x8b4 ; CLK_EnablePLL + 52
        0x000008b2:    4608        .F      MOV      r0,r1
        0x000008b4:    4919        .I      LDR      r1,[pc,#100] ; [0x91c] = 0xf4240
        0x000008b6:    f7fffc2f    ../.    BL       __aeabi_uidiv ; 0x118
        0x000008ba:    4604        .F      MOV      r4,r0
        0x000008bc:    4917        .I      LDR      r1,[pc,#92] ; [0x91c] = 0xf4240
        0x000008be:    4638        8F      MOV      r0,r7
        0x000008c0:    f7fffc2a    ..*.    BL       __aeabi_uidiv ; 0x118
        0x000008c4:    2820         (      CMP      r0,#0x20
        0x000008c6:    d801        ..      BHI      0x8cc ; CLK_EnablePLL + 76
        0x000008c8:    2c10        .,      CMP      r4,#0x10
        0x000008ca:    d906        ..      BLS      0x8da ; CLK_EnablePLL + 90
        0x000008cc:    0840        @.      LSRS     r0,r0,#1
        0x000008ce:    0864        d.      LSRS     r4,r4,#1
        0x000008d0:    e7f8        ..      B        0x8c4 ; CLK_EnablePLL + 68
        0x000008d2:    6a68        hj      LDR      r0,[r5,#0x24]
        0x000008d4:    43b0        .C      BICS     r0,r0,r6
        0x000008d6:    6268        hb      STR      r0,[r5,#0x24]
        0x000008d8:    e7eb        ..      B        0x8b2 ; CLK_EnablePLL + 50
        0x000008da:    0221        !.      LSLS     r1,r4,#8
        0x000008dc:    39ff        .9      SUBS     r1,r1,#0xff
        0x000008de:    3901        .9      SUBS     r1,#1
        0x000008e0:    4301        .C      ORRS     r1,r1,r0
        0x000008e2:    6a68        hj      LDR      r0,[r5,#0x24]
        0x000008e4:    4a0e        .J      LDR      r2,[pc,#56] ; [0x920] = 0xfffff0c0
        0x000008e6:    4010        .@      ANDS     r0,r0,r2
        0x000008e8:    4308        .C      ORRS     r0,r0,r1
        0x000008ea:    6268        hb      STR      r0,[r5,#0x24]
        0x000008ec:    9801        ..      LDR      r0,[sp,#4]
        0x000008ee:    42b0        .B      CMP      r0,r6
        0x000008f0:    6a68        hj      LDR      r0,[r5,#0x24]
        0x000008f2:    d101        ..      BNE      0x8f8 ; CLK_EnablePLL + 120
        0x000008f4:    4330        0C      ORRS     r0,r0,r6
        0x000008f6:    e000        ..      B        0x8fa ; CLK_EnablePLL + 122
        0x000008f8:    43b0        .C      BICS     r0,r0,r6
        0x000008fa:    6268        hb      STR      r0,[r5,#0x24]
        0x000008fc:    6a68        hj      LDR      r0,[r5,#0x24]
        0x000008fe:    2101        .!      MOVS     r1,#1
        0x00000900:    0409        ..      LSLS     r1,r1,#16
        0x00000902:    4388        .C      BICS     r0,r0,r1
        0x00000904:    6268        hb      STR      r0,[r5,#0x24]
        0x00000906:    f000f839    ..9.    BL       CLK_GetPLLClockFreq ; 0x97c
        0x0000090a:    bdfe        ..      POP      {r1-r7,pc}
    $d
        0x0000090c:    00f42400    .$..    DCD    16000000
        0x00000910:    01e84800    .H..    DCD    32000000
        0x00000914:    00b71b00    ....    DCD    12000000
        0x00000918:    50000200    ...P    DCD    1342177792
        0x0000091c:    000f4240    @B..    DCD    1000000
        0x00000920:    fffff0c0    ....    DCD    4294963392
    $t
    i.CLK_EnableXtalRC
    CLK_EnableXtalRC
        0x00000924:    4902        .I      LDR      r1,[pc,#8] ; [0x930] = 0x50000200
        0x00000926:    680a        .h      LDR      r2,[r1,#0]
        0x00000928:    4302        .C      ORRS     r2,r2,r0
        0x0000092a:    600a        .`      STR      r2,[r1,#0]
        0x0000092c:    4770        pG      BX       lr
    $d
        0x0000092e:    0000        ..      DCW    0
        0x00000930:    50000200    ...P    DCD    1342177792
    $t
    i.CLK_GetHCLKFreq
    CLK_GetHCLKFreq
        0x00000934:    b510        ..      PUSH     {r4,lr}
        0x00000936:    f001f849    ..I.    BL       SystemCoreClockUpdate ; 0x19cc
        0x0000093a:    4801        .H      LDR      r0,[pc,#4] ; [0x940] = 0x20000000
        0x0000093c:    6800        .h      LDR      r0,[r0,#0]
        0x0000093e:    bd10        ..      POP      {r4,pc}
    $d
        0x00000940:    20000000    ...     DCD    536870912
    $t
    i.CLK_GetPCLKFreq
    CLK_GetPCLKFreq
        0x00000944:    b510        ..      PUSH     {r4,lr}
        0x00000946:    b088        ..      SUB      sp,sp,#0x20
        0x00000948:    2220         "      MOVS     r2,#0x20
        0x0000094a:    4909        .I      LDR      r1,[pc,#36] ; [0x970] = 0x30f0
        0x0000094c:    4668        hF      MOV      r0,sp
        0x0000094e:    f7fffc1f    ....    BL       __aeabi_memcpy ; 0x190
        0x00000952:    4808        .H      LDR      r0,[pc,#32] ; [0x974] = 0x50000200
        0x00000954:    6b40        @k      LDR      r0,[r0,#0x34]
        0x00000956:    0744        D.      LSLS     r4,r0,#29
        0x00000958:    0f64        d.      LSRS     r4,r4,#29
        0x0000095a:    f001f837    ..7.    BL       SystemCoreClockUpdate ; 0x19cc
        0x0000095e:    00a0        ..      LSLS     r0,r4,#2
        0x00000960:    4669        iF      MOV      r1,sp
        0x00000962:    5809        .X      LDR      r1,[r1,r0]
        0x00000964:    4804        .H      LDR      r0,[pc,#16] ; [0x978] = 0x20000000
        0x00000966:    6800        .h      LDR      r0,[r0,#0]
        0x00000968:    f7fffbd6    ....    BL       __aeabi_uidiv ; 0x118
        0x0000096c:    b008        ..      ADD      sp,sp,#0x20
        0x0000096e:    bd10        ..      POP      {r4,pc}
    $d
        0x00000970:    000030f0    .0..    DCD    12528
        0x00000974:    50000200    ...P    DCD    1342177792
        0x00000978:    20000000    ...     DCD    536870912
    $t
    i.CLK_GetPLLClockFreq
    CLK_GetPLLClockFreq
        0x0000097c:    b510        ..      PUSH     {r4,lr}
        0x0000097e:    490b        .I      LDR      r1,[pc,#44] ; [0x9ac] = 0x50000200
        0x00000980:    6a4a        Jj      LDR      r2,[r1,#0x24]
        0x00000982:    03d0        ..      LSLS     r0,r2,#15
        0x00000984:    d501        ..      BPL      0x98a ; CLK_GetPLLClockFreq + 14
        0x00000986:    2000        .       MOVS     r0,#0
        0x00000988:    bd10        ..      POP      {r4,pc}
        0x0000098a:    4809        .H      LDR      r0,[pc,#36] ; [0x9b0] = 0xb71b00
        0x0000098c:    0393        ..      LSLS     r3,r2,#14
        0x0000098e:    d503        ..      BPL      0x998 ; CLK_GetPLLClockFreq + 28
        0x00000990:    6a49        Ij      LDR      r1,[r1,#0x24]
        0x00000992:    04c9        ..      LSLS     r1,r1,#19
        0x00000994:    d500        ..      BPL      0x998 ; CLK_GetPLLClockFreq + 28
        0x00000996:    4807        .H      LDR      r0,[pc,#28] ; [0x9b4] = 0xf42400
        0x00000998:    0511        ..      LSLS     r1,r2,#20
        0x0000099a:    0692        ..      LSLS     r2,r2,#26
        0x0000099c:    0f09        ..      LSRS     r1,r1,#28
        0x0000099e:    0e92        ..      LSRS     r2,r2,#26
        0x000009a0:    4350        PC      MULS     r0,r2,r0
        0x000009a2:    1c49        I.      ADDS     r1,r1,#1
        0x000009a4:    f7fffbb8    ....    BL       __aeabi_uidiv ; 0x118
        0x000009a8:    bd10        ..      POP      {r4,pc}
    $d
        0x000009aa:    0000        ..      DCW    0
        0x000009ac:    50000200    ...P    DCD    1342177792
        0x000009b0:    00b71b00    ....    DCD    12000000
        0x000009b4:    00f42400    .$..    DCD    16000000
    $t
    i.CLK_SetCoreClock
    CLK_SetCoreClock
        0x000009b8:    b510        ..      PUSH     {r4,lr}
        0x000009ba:    490a        .I      LDR      r1,[pc,#40] ; [0x9e4] = 0x50000200
        0x000009bc:    6809        .h      LDR      r1,[r1,#0]
        0x000009be:    07c9        ..      LSLS     r1,r1,#31
        0x000009c0:    4601        .F      MOV      r1,r0
        0x000009c2:    d001        ..      BEQ      0x9c8 ; CLK_SetCoreClock + 16
        0x000009c4:    2000        .       MOVS     r0,#0
        0x000009c6:    e001        ..      B        0x9cc ; CLK_SetCoreClock + 20
        0x000009c8:    2001        .       MOVS     r0,#1
        0x000009ca:    0440        @.      LSLS     r0,r0,#17
        0x000009cc:    f7ffff58    ..X.    BL       CLK_EnablePLL ; 0x880
        0x000009d0:    2004        .       MOVS     r0,#4
        0x000009d2:    f000f857    ..W.    BL       CLK_WaitClockReady ; 0xa84
        0x000009d6:    2100        .!      MOVS     r1,#0
        0x000009d8:    2002        .       MOVS     r0,#2
        0x000009da:    f000f807    ....    BL       CLK_SetHCLK ; 0x9ec
        0x000009de:    4802        .H      LDR      r0,[pc,#8] ; [0x9e8] = 0x20000000
        0x000009e0:    6800        .h      LDR      r0,[r0,#0]
        0x000009e2:    bd10        ..      POP      {r4,pc}
    $d
        0x000009e4:    50000200    ...P    DCD    1342177792
        0x000009e8:    20000000    ...     DCD    536870912
    $t
    i.CLK_SetHCLK
    CLK_SetHCLK
        0x000009ec:    b510        ..      PUSH     {r4,lr}
        0x000009ee:    4a07        .J      LDR      r2,[pc,#28] ; [0xa0c] = 0x50000200
        0x000009f0:    69d3        .i      LDR      r3,[r2,#0x1c]
        0x000009f2:    091b        ..      LSRS     r3,r3,#4
        0x000009f4:    011b        ..      LSLS     r3,r3,#4
        0x000009f6:    430b        .C      ORRS     r3,r3,r1
        0x000009f8:    61d3        .a      STR      r3,[r2,#0x1c]
        0x000009fa:    6911        .i      LDR      r1,[r2,#0x10]
        0x000009fc:    08c9        ..      LSRS     r1,r1,#3
        0x000009fe:    00c9        ..      LSLS     r1,r1,#3
        0x00000a00:    4301        .C      ORRS     r1,r1,r0
        0x00000a02:    6111        .a      STR      r1,[r2,#0x10]
        0x00000a04:    f000ffe2    ....    BL       SystemCoreClockUpdate ; 0x19cc
        0x00000a08:    bd10        ..      POP      {r4,pc}
    $d
        0x00000a0a:    0000        ..      DCW    0
        0x00000a0c:    50000200    ...P    DCD    1342177792
    $t
    i.CLK_SetModuleClock
    CLK_SetModuleClock
        0x00000a10:    b570        p.      PUSH     {r4-r6,lr}
        0x00000a12:    0a84        ..      LSRS     r4,r0,#10
        0x00000a14:    0623        #.      LSLS     r3,r4,#24
        0x00000a16:    0e1b        ..      LSRS     r3,r3,#24
        0x00000a18:    d00c        ..      BEQ      0xa34 ; CLK_SetModuleClock + 36
        0x00000a1a:    0303        ..      LSLS     r3,r0,#12
        0x00000a1c:    0f9b        ..      LSRS     r3,r3,#30
        0x00000a1e:    4d0f        .M      LDR      r5,[pc,#60] ; [0xa5c] = 0x5000021c
        0x00000a20:    009b        ..      LSLS     r3,r3,#2
        0x00000a22:    195b        [.      ADDS     r3,r3,r5
        0x00000a24:    681d        .h      LDR      r5,[r3,#0]
        0x00000a26:    0586        ..      LSLS     r6,r0,#22
        0x00000a28:    b2e4        ..      UXTB     r4,r4
        0x00000a2a:    0ef6        ..      LSRS     r6,r6,#27
        0x00000a2c:    40b4        .@      LSLS     r4,r4,r6
        0x00000a2e:    43a5        .C      BICS     r5,r5,r4
        0x00000a30:    4315        .C      ORRS     r5,r5,r2
        0x00000a32:    601d        .`      STR      r5,[r3,#0]
        0x00000a34:    0e42        B.      LSRS     r2,r0,#25
        0x00000a36:    0712        ..      LSLS     r2,r2,#28
        0x00000a38:    d00e        ..      BEQ      0xa58 ; CLK_SetModuleClock + 72
        0x00000a3a:    0042        B.      LSLS     r2,r0,#1
        0x00000a3c:    4b07        .K      LDR      r3,[pc,#28] ; [0xa5c] = 0x5000021c
        0x00000a3e:    0f92        ..      LSRS     r2,r2,#30
        0x00000a40:    0092        ..      LSLS     r2,r2,#2
        0x00000a42:    3b0c        .;      SUBS     r3,r3,#0xc
        0x00000a44:    18d2        ..      ADDS     r2,r2,r3
        0x00000a46:    6813        .h      LDR      r3,[r2,#0]
        0x00000a48:    00c4        ..      LSLS     r4,r0,#3
        0x00000a4a:    0f24        $.      LSRS     r4,r4,#28
        0x00000a4c:    01c0        ..      LSLS     r0,r0,#7
        0x00000a4e:    0ec0        ..      LSRS     r0,r0,#27
        0x00000a50:    4084        .@      LSLS     r4,r4,r0
        0x00000a52:    43a3        .C      BICS     r3,r3,r4
        0x00000a54:    430b        .C      ORRS     r3,r3,r1
        0x00000a56:    6013        .`      STR      r3,[r2,#0]
        0x00000a58:    bd70        p.      POP      {r4-r6,pc}
    $d
        0x00000a5a:    0000        ..      DCW    0
        0x00000a5c:    5000021c    ...P    DCD    1342177820
    $t
    i.CLK_SysTickDelay
    CLK_SysTickDelay
        0x00000a60:    4906        .I      LDR      r1,[pc,#24] ; [0xa7c] = 0x20000004
        0x00000a62:    6809        .h      LDR      r1,[r1,#0]
        0x00000a64:    4348        HC      MULS     r0,r1,r0
        0x00000a66:    4906        .I      LDR      r1,[pc,#24] ; [0xa80] = 0xe000e000
        0x00000a68:    6148        Ha      STR      r0,[r1,#0x14]
        0x00000a6a:    2200        ."      MOVS     r2,#0
        0x00000a6c:    618a        .a      STR      r2,[r1,#0x18]
        0x00000a6e:    2005        .       MOVS     r0,#5
        0x00000a70:    6108        .a      STR      r0,[r1,#0x10]
        0x00000a72:    6908        .i      LDR      r0,[r1,#0x10]
        0x00000a74:    03c0        ..      LSLS     r0,r0,#15
        0x00000a76:    d5fc        ..      BPL      0xa72 ; CLK_SysTickDelay + 18
        0x00000a78:    610a        .a      STR      r2,[r1,#0x10]
        0x00000a7a:    4770        pG      BX       lr
    $d
        0x00000a7c:    20000004    ...     DCD    536870916
        0x00000a80:    e000e000    ....    DCD    3758153728
    $t
    i.CLK_WaitClockReady
    CLK_WaitClockReady
        0x00000a84:    b510        ..      PUSH     {r4,lr}
        0x00000a86:    4604        .F      MOV      r4,r0
        0x00000a88:    4907        .I      LDR      r1,[pc,#28] ; [0xaa8] = 0x20f580
        0x00000a8a:    4b08        .K      LDR      r3,[pc,#32] ; [0xaac] = 0x50000200
        0x00000a8c:    e005        ..      B        0xa9a ; CLK_WaitClockReady + 22
        0x00000a8e:    460a        .F      MOV      r2,r1
        0x00000a90:    1e49        I.      SUBS     r1,r1,#1
        0x00000a92:    2a00        .*      CMP      r2,#0
        0x00000a94:    dc01        ..      BGT      0xa9a ; CLK_WaitClockReady + 22
        0x00000a96:    2000        .       MOVS     r0,#0
        0x00000a98:    bd10        ..      POP      {r4,pc}
        0x00000a9a:    68da        .h      LDR      r2,[r3,#0xc]
        0x00000a9c:    4620         F      MOV      r0,r4
        0x00000a9e:    4390        .C      BICS     r0,r0,r2
        0x00000aa0:    d1f5        ..      BNE      0xa8e ; CLK_WaitClockReady + 10
        0x00000aa2:    2001        .       MOVS     r0,#1
        0x00000aa4:    bd10        ..      POP      {r4,pc}
    $d
        0x00000aa6:    0000        ..      DCW    0
        0x00000aa8:    0020f580    .. .    DCD    2160000
        0x00000aac:    50000200    ...P    DCD    1342177792
    $t
    i.Change_mode
    Change_mode
        0x00000ab0:    b5f0        ..      PUSH     {r4-r7,lr}
        0x00000ab2:    4835        5H      LDR      r0,[pc,#212] ; [0xb88] = 0x20000008
        0x00000ab4:    2200        ."      MOVS     r2,#0
        0x00000ab6:    4f35        5O      LDR      r7,[pc,#212] ; [0xb8c] = 0x50004240
        0x00000ab8:    5e82        .^      LDRSH    r2,[r0,r2]
        0x00000aba:    2404        .$      MOVS     r4,#4
        0x00000abc:    2507        .%      MOVS     r5,#7
        0x00000abe:    4e33        3N      LDR      r6,[pc,#204] ; [0xb8c] = 0x50004240
        0x00000ac0:    3f40        @?      SUBS     r7,r7,#0x40
        0x00000ac2:    2301        .#      MOVS     r3,#1
        0x00000ac4:    2100        .!      MOVS     r1,#0
        0x00000ac6:    2a16        .*      CMP      r2,#0x16
        0x00000ac8:    d034        4.      BEQ      0xb34 ; Change_mode + 132
        0x00000aca:    2a17        .*      CMP      r2,#0x17
        0x00000acc:    d004        ..      BEQ      0xad8 ; Change_mode + 40
        0x00000ace:    2a19        .*      CMP      r2,#0x19
        0x00000ad0:    d028        (.      BEQ      0xb24 ; Change_mode + 116
        0x00000ad2:    2a1a        .*      CMP      r2,#0x1a
        0x00000ad4:    d153        S.      BNE      0xb7e ; Change_mode + 206
        0x00000ad6:    e00f        ..      B        0xaf8 ; Change_mode + 72
        0x00000ad8:    8201        ..      STRH     r1,[r0,#0x10]
        0x00000ada:    8181        ..      STRH     r1,[r0,#0xc]
        0x00000adc:    8043        C.      STRH     r3,[r0,#2]
        0x00000ade:    4a2c        ,J      LDR      r2,[pc,#176] ; [0xb90] = 0x20000d2c
        0x00000ae0:    6182        .a      STR      r2,[r0,#0x18]
        0x00000ae2:    2204        ."      MOVS     r2,#4
        0x00000ae4:    5e82        .^      LDRSH    r2,[r0,r2]
        0x00000ae6:    2a01        .*      CMP      r2,#1
        0x00000ae8:    d002        ..      BEQ      0xaf0 ; Change_mode + 64
        0x00000aea:    2a04        .*      CMP      r2,#4
        0x00000aec:    d002        ..      BEQ      0xaf4 ; Change_mode + 68
        0x00000aee:    e046        F.      B        0xb7e ; Change_mode + 206
        0x00000af0:    8084        ..      STRH     r4,[r0,#4]
        0x00000af2:    e044        D.      B        0xb7e ; Change_mode + 206
        0x00000af4:    8085        ..      STRH     r5,[r0,#4]
        0x00000af6:    e042        B.      B        0xb7e ; Change_mode + 206
        0x00000af8:    8181        ..      STRH     r1,[r0,#0xc]
        0x00000afa:    4a26        &J      LDR      r2,[pc,#152] ; [0xb94] = 0x20000fd6
        0x00000afc:    6182        .a      STR      r2,[r0,#0x18]
        0x00000afe:    8043        C.      STRH     r3,[r0,#2]
        0x00000b00:    2204        ."      MOVS     r2,#4
        0x00000b02:    5e82        .^      LDRSH    r2,[r0,r2]
        0x00000b04:    2a01        .*      CMP      r2,#1
        0x00000b06:    d004        ..      BEQ      0xb12 ; Change_mode + 98
        0x00000b08:    2a04        .*      CMP      r2,#4
        0x00000b0a:    d004        ..      BEQ      0xb16 ; Change_mode + 102
        0x00000b0c:    2a07        .*      CMP      r2,#7
        0x00000b0e:    d004        ..      BEQ      0xb1a ; Change_mode + 106
        0x00000b10:    e005        ..      B        0xb1e ; Change_mode + 110
        0x00000b12:    2203        ."      MOVS     r2,#3
        0x00000b14:    e002        ..      B        0xb1c ; Change_mode + 108
        0x00000b16:    2206        ."      MOVS     r2,#6
        0x00000b18:    e000        ..      B        0xb1c ; Change_mode + 108
        0x00000b1a:    2209        ."      MOVS     r2,#9
        0x00000b1c:    8082        ..      STRH     r2,[r0,#4]
        0x00000b1e:    63f1        .c      STR      r1,[r6,#0x3c]
        0x00000b20:    63bb        .c      STR      r3,[r7,#0x38]
        0x00000b22:    e02c        ,.      B        0xb7e ; Change_mode + 206
        0x00000b24:    4a1a        .J      LDR      r2,[pc,#104] ; [0xb90] = 0x20000d2c
        0x00000b26:    8181        ..      STRH     r1,[r0,#0xc]
        0x00000b28:    3260        `2      ADDS     r2,r2,#0x60
        0x00000b2a:    6182        .a      STR      r2,[r0,#0x18]
        0x00000b2c:    8043        C.      STRH     r3,[r0,#2]
        0x00000b2e:    2210        ."      MOVS     r2,#0x10
        0x00000b30:    8082        ..      STRH     r2,[r0,#4]
        0x00000b32:    e024        $.      B        0xb7e ; Change_mode + 206
        0x00000b34:    4a16        .J      LDR      r2,[pc,#88] ; [0xb90] = 0x20000d2c
        0x00000b36:    3a60        `:      SUBS     r2,r2,#0x60
        0x00000b38:    6182        .a      STR      r2,[r0,#0x18]
        0x00000b3a:    8181        ..      STRH     r1,[r0,#0xc]
        0x00000b3c:    8043        C.      STRH     r3,[r0,#2]
        0x00000b3e:    2212        ."      MOVS     r2,#0x12
        0x00000b40:    5e82        .^      LDRSH    r2,[r0,r2]
        0x00000b42:    2a32        2*      CMP      r2,#0x32
        0x00000b44:    dd02        ..      BLE      0xb4c ; Change_mode + 156
        0x00000b46:    3a32        2:      SUBS     r2,r2,#0x32
        0x00000b48:    8242        B.      STRH     r2,[r0,#0x12]
        0x00000b4a:    e000        ..      B        0xb4e ; Change_mode + 158
        0x00000b4c:    8241        A.      STRH     r1,[r0,#0x12]
        0x00000b4e:    88c2        ..      LDRH     r2,[r0,#6]
        0x00000b50:    2a01        .*      CMP      r2,#1
        0x00000b52:    d114        ..      BNE      0xb7e ; Change_mode + 206
        0x00000b54:    2212        ."      MOVS     r2,#0x12
        0x00000b56:    5e82        .^      LDRSH    r2,[r0,r2]
        0x00000b58:    2a50        P*      CMP      r2,#0x50
        0x00000b5a:    da10        ..      BGE      0xb7e ; Change_mode + 206
        0x00000b5c:    2204        ."      MOVS     r2,#4
        0x00000b5e:    5e82        .^      LDRSH    r2,[r0,r2]
        0x00000b60:    2a03        .*      CMP      r2,#3
        0x00000b62:    d004        ..      BEQ      0xb6e ; Change_mode + 190
        0x00000b64:    2a06        .*      CMP      r2,#6
        0x00000b66:    d004        ..      BEQ      0xb72 ; Change_mode + 194
        0x00000b68:    2a09        .*      CMP      r2,#9
        0x00000b6a:    d004        ..      BEQ      0xb76 ; Change_mode + 198
        0x00000b6c:    e004        ..      B        0xb78 ; Change_mode + 200
        0x00000b6e:    8083        ..      STRH     r3,[r0,#4]
        0x00000b70:    e002        ..      B        0xb78 ; Change_mode + 200
        0x00000b72:    8084        ..      STRH     r4,[r0,#4]
        0x00000b74:    e000        ..      B        0xb78 ; Change_mode + 200
        0x00000b76:    8085        ..      STRH     r5,[r0,#4]
        0x00000b78:    80c1        ..      STRH     r1,[r0,#6]
        0x00000b7a:    63f3        .c      STR      r3,[r6,#0x3c]
        0x00000b7c:    63b9        .c      STR      r1,[r7,#0x38]
        0x00000b7e:    8101        ..      STRH     r1,[r0,#8]
        0x00000b80:    2115        .!      MOVS     r1,#0x15
        0x00000b82:    8001        ..      STRH     r1,[r0,#0]
        0x00000b84:    bdf0        ..      POP      {r4-r7,pc}
    $d
        0x00000b86:    0000        ..      DCW    0
        0x00000b88:    20000008    ...     DCD    536870920
        0x00000b8c:    50004240    @B.P    DCD    1342194240
        0x00000b90:    20000d2c    ,..     DCD    536874284
        0x00000b94:    20000fd6    ...     DCD    536874966
    $t
    i.CheckADC
    CheckADC
        0x00000b98:    b5f1        ..      PUSH     {r0,r4-r7,lr}
        0x00000b9a:    2500        .%      MOVS     r5,#0
        0x00000b9c:    f000fe4a    ..J.    BL       Read_MPU6050_AccZ ; 0x1834
        0x00000ba0:    4606        .F      MOV      r6,r0
        0x00000ba2:    4f0e        .O      LDR      r7,[pc,#56] ; [0xbdc] = 0x20000008
        0x00000ba4:    e000        ..      B        0xba8 ; CheckADC + 16
        0x00000ba6:    1c64        d.      ADDS     r4,r4,#1
        0x00000ba8:    480d        .H      LDR      r0,[pc,#52] ; [0xbe0] = 0xc350
        0x00000baa:    4284        .B      CMP      r4,r0
        0x00000bac:    dbfb        ..      BLT      0xba6 ; CheckADC + 14
        0x00000bae:    2400        .$      MOVS     r4,#0
        0x00000bb0:    817c        |.      STRH     r4,[r7,#0xa]
        0x00000bb2:    1c6d        m.      ADDS     r5,r5,#1
        0x00000bb4:    f000fe3e    ..>.    BL       Read_MPU6050_AccZ ; 0x1834
        0x00000bb8:    1a31        1.      SUBS     r1,r6,r0
        0x00000bba:    d500        ..      BPL      0xbbe ; CheckADC + 38
        0x00000bbc:    4249        IB      RSBS     r1,r1,#0
        0x00000bbe:    4a09        .J      LDR      r2,[pc,#36] ; [0xbe4] = 0x2710
        0x00000bc0:    4291        .B      CMP      r1,r2
        0x00000bc2:    dd01        ..      BLE      0xbc8 ; CheckADC + 48
        0x00000bc4:    9800        ..      LDR      r0,[sp,#0]
        0x00000bc6:    bdf8        ..      POP      {r3-r7,pc}
        0x00000bc8:    4606        .F      MOV      r6,r0
        0x00000bca:    a007        ..      ADR      r0,{pc}+0x1e ; 0xbe8
        0x00000bcc:    f001f864    ..d.    BL       __0printf$1 ; 0x1c98
        0x00000bd0:    2001        .       MOVS     r0,#1
        0x00000bd2:    8178        x.      STRH     r0,[r7,#0xa]
        0x00000bd4:    2d0f        .-      CMP      r5,#0xf
        0x00000bd6:    dbe7        ..      BLT      0xba8 ; CheckADC + 16
        0x00000bd8:    2000        .       MOVS     r0,#0
        0x00000bda:    bdf8        ..      POP      {r3-r7,pc}
    $d
        0x00000bdc:    20000008    ...     DCD    536870920
        0x00000be0:    0000c350    P...    DCD    50000
        0x00000be4:    00002710    .'..    DCD    10000
        0x00000be8:    000a6425    %d..    DCD    680997
    $t
    i.DetectADC
    DetectADC
        0x00000bec:    b5fe        ..      PUSH     {r1-r7,lr}
        0x00000bee:    483e        >H      LDR      r0,[pc,#248] ; [0xce8] = 0x400e0040
        0x00000bf0:    6980        .i      LDR      r0,[r0,#0x18]
        0x00000bf2:    07c6        ..      LSLS     r6,r0,#31
        0x00000bf4:    0ff6        ..      LSRS     r6,r6,#31
        0x00000bf6:    07f0        ..      LSLS     r0,r6,#31
        0x00000bf8:    d06f        o.      BEQ      0xcda ; DetectADC + 238
        0x00000bfa:    483b        ;H      LDR      r0,[pc,#236] ; [0xce8] = 0x400e0040
        0x00000bfc:    3840        @8      SUBS     r0,r0,#0x40
        0x00000bfe:    6900        .i      LDR      r0,[r0,#0x10]
        0x00000c00:    0504        ..      LSLS     r4,r0,#20
        0x00000c02:    0d24        $.      LSRS     r4,r4,#20
        0x00000c04:    4621        !F      MOV      r1,r4
        0x00000c06:    a039        9.      ADR      r0,{pc}+0xe6 ; 0xcec
        0x00000c08:    f001f846    ..F.    BL       __0printf$1 ; 0x1c98
        0x00000c0c:    483b        ;H      LDR      r0,[pc,#236] ; [0xcfc] = 0x9c4
        0x00000c0e:    4284        .B      CMP      r4,r0
        0x00000c10:    d963        c.      BLS      0xcda ; DetectADC + 238
        0x00000c12:    483b        ;H      LDR      r0,[pc,#236] ; [0xd00] = 0x20000008
        0x00000c14:    8841        A.      LDRH     r1,[r0,#2]
        0x00000c16:    2900        .)      CMP      r1,#0
        0x00000c18:    d15f        _.      BNE      0xcda ; DetectADC + 238
        0x00000c1a:    4601        .F      MOV      r1,r0
        0x00000c1c:    2004        .       MOVS     r0,#4
        0x00000c1e:    5e08        .^      LDRSH    r0,[r1,r0]
        0x00000c20:    2218        ."      MOVS     r2,#0x18
        0x00000c22:    9002        ..      STR      r0,[sp,#8]
        0x00000c24:    800a        ..      STRH     r2,[r1,#0]
        0x00000c26:    2801        .(      CMP      r0,#1
        0x00000c28:    d00a        ..      BEQ      0xc40 ; DetectADC + 84
        0x00000c2a:    2803        .(      CMP      r0,#3
        0x00000c2c:    d008        ..      BEQ      0xc40 ; DetectADC + 84
        0x00000c2e:    2804        .(      CMP      r0,#4
        0x00000c30:    d00a        ..      BEQ      0xc48 ; DetectADC + 92
        0x00000c32:    2806        .(      CMP      r0,#6
        0x00000c34:    d008        ..      BEQ      0xc48 ; DetectADC + 92
        0x00000c36:    2807        .(      CMP      r0,#7
        0x00000c38:    d008        ..      BEQ      0xc4c ; DetectADC + 96
        0x00000c3a:    2809        .(      CMP      r0,#9
        0x00000c3c:    d006        ..      BEQ      0xc4c ; DetectADC + 96
        0x00000c3e:    e007        ..      B        0xc50 ; DetectADC + 100
        0x00000c40:    482f        /H      LDR      r0,[pc,#188] ; [0xd00] = 0x20000008
        0x00000c42:    2102        .!      MOVS     r1,#2
        0x00000c44:    8081        ..      STRH     r1,[r0,#4]
        0x00000c46:    e003        ..      B        0xc50 ; DetectADC + 100
        0x00000c48:    2005        .       MOVS     r0,#5
        0x00000c4a:    e000        ..      B        0xc4e ; DetectADC + 98
        0x00000c4c:    2008        .       MOVS     r0,#8
        0x00000c4e:    8088        ..      STRH     r0,[r1,#4]
        0x00000c50:    482c        ,H      LDR      r0,[pc,#176] ; [0xd04] = 0x500042c0
        0x00000c52:    2100        .!      MOVS     r1,#0
        0x00000c54:    6281        .b      STR      r1,[r0,#0x28]
        0x00000c56:    492b        +I      LDR      r1,[pc,#172] ; [0xd04] = 0x500042c0
        0x00000c58:    3980        .9      SUBS     r1,r1,#0x80
        0x00000c5a:    6bc8        .k      LDR      r0,[r1,#0x3c]
        0x00000c5c:    4a29        )J      LDR      r2,[pc,#164] ; [0xd04] = 0x500042c0
        0x00000c5e:    b200        ..      SXTH     r0,r0
        0x00000c60:    3ac0        .:      SUBS     r2,r2,#0xc0
        0x00000c62:    9001        ..      STR      r0,[sp,#4]
        0x00000c64:    6b90        .k      LDR      r0,[r2,#0x38]
        0x00000c66:    b200        ..      SXTH     r0,r0
        0x00000c68:    9000        ..      STR      r0,[sp,#0]
        0x00000c6a:    2001        .       MOVS     r0,#1
        0x00000c6c:    63c8        .c      STR      r0,[r1,#0x3c]
        0x00000c6e:    6390        .c      STR      r0,[r2,#0x38]
        0x00000c70:    f000f882    ....    BL       Draw_my_LCD ; 0xd78
        0x00000c74:    4f24        $O      LDR      r7,[pc,#144] ; [0xd08] = 0x20000dec
        0x00000c76:    2400        .$      MOVS     r4,#0
        0x00000c78:    0065        e.      LSLS     r5,r4,#1
        0x00000c7a:    5f7a        z_      LDRSH    r2,[r7,r5]
        0x00000c7c:    230a        .#      MOVS     r3,#0xa
        0x00000c7e:    2103        .!      MOVS     r1,#3
        0x00000c80:    4822        "H      LDR      r0,[pc,#136] ; [0xd0c] = 0x40040000
        0x00000c82:    f000fced    ....    BL       PWM_ConfigOutputChannel ; 0x1660
        0x00000c86:    5b78        x[      LDRH     r0,[r7,r5]
        0x00000c88:    2800        .(      CMP      r0,#0
        0x00000c8a:    d004        ..      BEQ      0xc96 ; DetectADC + 170
        0x00000c8c:    2108        .!      MOVS     r1,#8
        0x00000c8e:    481f        .H      LDR      r0,[pc,#124] ; [0xd0c] = 0x40040000
        0x00000c90:    f000fda0    ....    BL       PWM_EnableOutput ; 0x17d4
        0x00000c94:    e003        ..      B        0xc9e ; DetectADC + 178
        0x00000c96:    2108        .!      MOVS     r1,#8
        0x00000c98:    481c        .H      LDR      r0,[pc,#112] ; [0xd0c] = 0x40040000
        0x00000c9a:    f000fd97    ....    BL       PWM_DisableOutput ; 0x17cc
        0x00000c9e:    481c        .H      LDR      r0,[pc,#112] ; [0xd10] = 0x1e848
        0x00000ca0:    f7fffede    ....    BL       CLK_SysTickDelay ; 0xa60
        0x00000ca4:    1c64        d.      ADDS     r4,r4,#1
        0x00000ca6:    b224        $.      SXTH     r4,r4
        0x00000ca8:    2c34        4,      CMP      r4,#0x34
        0x00000caa:    dbe5        ..      BLT      0xc78 ; DetectADC + 140
        0x00000cac:    2108        .!      MOVS     r1,#8
        0x00000cae:    4817        .H      LDR      r0,[pc,#92] ; [0xd0c] = 0x40040000
        0x00000cb0:    f000fd8c    ....    BL       PWM_DisableOutput ; 0x17cc
        0x00000cb4:    4817        .H      LDR      r0,[pc,#92] ; [0xd14] = 0x2dc6c0
        0x00000cb6:    f7fffed3    ....    BL       CLK_SysTickDelay ; 0xa60
        0x00000cba:    4811        .H      LDR      r0,[pc,#68] ; [0xd00] = 0x20000008
        0x00000cbc:    9902        ..      LDR      r1,[sp,#8]
        0x00000cbe:    8081        ..      STRH     r1,[r0,#4]
        0x00000cc0:    2115        .!      MOVS     r1,#0x15
        0x00000cc2:    8001        ..      STRH     r1,[r0,#0]
        0x00000cc4:    490f        .I      LDR      r1,[pc,#60] ; [0xd04] = 0x500042c0
        0x00000cc6:    2001        .       MOVS     r0,#1
        0x00000cc8:    6288        .b      STR      r0,[r1,#0x28]
        0x00000cca:    490e        .I      LDR      r1,[pc,#56] ; [0xd04] = 0x500042c0
        0x00000ccc:    9801        ..      LDR      r0,[sp,#4]
        0x00000cce:    3980        .9      SUBS     r1,r1,#0x80
        0x00000cd0:    63c8        .c      STR      r0,[r1,#0x3c]
        0x00000cd2:    480c        .H      LDR      r0,[pc,#48] ; [0xd04] = 0x500042c0
        0x00000cd4:    9900        ..      LDR      r1,[sp,#0]
        0x00000cd6:    38c0        .8      SUBS     r0,r0,#0xc0
        0x00000cd8:    6381        .c      STR      r1,[r0,#0x38]
        0x00000cda:    4803        .H      LDR      r0,[pc,#12] ; [0xce8] = 0x400e0040
        0x00000cdc:    6981        .i      LDR      r1,[r0,#0x18]
        0x00000cde:    08c9        ..      LSRS     r1,r1,#3
        0x00000ce0:    00c9        ..      LSLS     r1,r1,#3
        0x00000ce2:    4331        1C      ORRS     r1,r1,r6
        0x00000ce4:    6181        .a      STR      r1,[r0,#0x18]
        0x00000ce6:    bdfe        ..      POP      {r1-r7,pc}
    $d
        0x00000ce8:    400e0040    @..@    DCD    1074659392
        0x00000cec:    35354c47    GL55    DCD    892685383
        0x00000cf0:    3d203631    16 =    DCD    1025521201
        0x00000cf4:    0a642520     %d.    DCD    174335264
        0x00000cf8:    00000000    ....    DCD    0
        0x00000cfc:    000009c4    ....    DCD    2500
        0x00000d00:    20000008    ...     DCD    536870920
        0x00000d04:    500042c0    .B.P    DCD    1342194368
        0x00000d08:    20000dec    ...     DCD    536874476
        0x00000d0c:    40040000    ...@    DCD    1074003968
        0x00000d10:    0001e848    H...    DCD    125000
        0x00000d14:    002dc6c0    ..-.    DCD    3000000
    $t
    i.DetectAcc
    DetectAcc
        0x00000d18:    4a08        .J      LDR      r2,[pc,#32] ; [0xd3c] = 0x32c8
        0x00000d1a:    b510        ..      PUSH     {r4,lr}
        0x00000d1c:    4291        .B      CMP      r1,r2
        0x00000d1e:    dc02        ..      BGT      0xd26 ; DetectAcc + 14
        0x00000d20:    4907        .I      LDR      r1,[pc,#28] ; [0xd40] = 0x3a98
        0x00000d22:    4288        .B      CMP      r0,r1
        0x00000d24:    dd08        ..      BLE      0xd38 ; DetectAcc + 32
        0x00000d26:    a107        ..      ADR      r1,{pc}+0x1e ; 0xd44
        0x00000d28:    2001        .       MOVS     r0,#1
        0x00000d2a:    f002f9ab    ....    BL       print_Line ; 0x3084
        0x00000d2e:    4806        .H      LDR      r0,[pc,#24] ; [0xd48] = 0x7a120
        0x00000d30:    f7fffe96    ....    BL       CLK_SysTickDelay ; 0xa60
        0x00000d34:    2001        .       MOVS     r0,#1
        0x00000d36:    bd10        ..      POP      {r4,pc}
        0x00000d38:    2000        .       MOVS     r0,#0
        0x00000d3a:    bd10        ..      POP      {r4,pc}
    $d
        0x00000d3c:    000032c8    .2..    DCD    13000
        0x00000d40:    00003a98    .:..    DCD    15000
        0x00000d44:    006e6c43    Cln.    DCD    7236675
        0x00000d48:    0007a120     ...    DCD    500000
    $t
    i.DetectTheta
    DetectTheta
        0x00000d4c:    2201        ."      MOVS     r2,#1
        0x00000d4e:    05d2        ..      LSLS     r2,r2,#23
        0x00000d50:    4290        .B      CMP      r0,r2
        0x00000d52:    db05        ..      BLT      0xd60 ; DetectTheta + 20
        0x00000d54:    1e49        I.      SUBS     r1,r1,#1
        0x00000d56:    b209        ..      SXTH     r1,r1
        0x00000d58:    290f        .)      CMP      r1,#0xf
        0x00000d5a:    dc0a        ..      BGT      0xd72 ; DetectTheta + 38
        0x00000d5c:    210f        .!      MOVS     r1,#0xf
        0x00000d5e:    e008        ..      B        0xd72 ; DetectTheta + 38
        0x00000d60:    22ff        ."      MOVS     r2,#0xff
        0x00000d62:    05d2        ..      LSLS     r2,r2,#23
        0x00000d64:    42d0        .B      CMN      r0,r2
        0x00000d66:    d304        ..      BCC      0xd72 ; DetectTheta + 38
        0x00000d68:    1c49        I.      ADDS     r1,r1,#1
        0x00000d6a:    b209        ..      SXTH     r1,r1
        0x00000d6c:    293c        <)      CMP      r1,#0x3c
        0x00000d6e:    db00        ..      BLT      0xd72 ; DetectTheta + 38
        0x00000d70:    213c        <!      MOVS     r1,#0x3c
        0x00000d72:    4608        .F      MOV      r0,r1
        0x00000d74:    4770        pG      BX       lr
        0x00000d76:    0000        ..      MOVS     r0,r0
    i.Draw_my_LCD
    Draw_my_LCD
        0x00000d78:    b5f8        ..      PUSH     {r3-r7,lr}
        0x00000d7a:    4889        .H      LDR      r0,[pc,#548] ; [0xfa0] = 0x20000008
        0x00000d7c:    2104        .!      MOVS     r1,#4
        0x00000d7e:    5e41        A^      LDRSH    r1,[r0,r1]
        0x00000d80:    2200        ."      MOVS     r2,#0
        0x00000d82:    4d88        .M      LDR      r5,[pc,#544] ; [0xfa4] = 0x200008cc
        0x00000d84:    2906        .)      CMP      r1,#6
        0x00000d86:    d067        g.      BEQ      0xe58 ; Draw_my_LCD + 224
        0x00000d88:    dc06        ..      BGT      0xd98 ; Draw_my_LCD + 32
        0x00000d8a:    2901        .)      CMP      r1,#1
        0x00000d8c:    d00c        ..      BEQ      0xda8 ; Draw_my_LCD + 48
        0x00000d8e:    2903        .)      CMP      r1,#3
        0x00000d90:    d028        (.      BEQ      0xde4 ; Draw_my_LCD + 108
        0x00000d92:    2904        .)      CMP      r1,#4
        0x00000d94:    d125        %.      BNE      0xde2 ; Draw_my_LCD + 106
        0x00000d96:    e042        B.      B        0xe1e ; Draw_my_LCD + 166
        0x00000d98:    4c83        .L      LDR      r4,[pc,#524] ; [0xfa8] = 0x2000064c
        0x00000d9a:    2907        .)      CMP      r1,#7
        0x00000d9c:    d07b        {.      BEQ      0xe96 ; Draw_my_LCD + 286
        0x00000d9e:    2909        .)      CMP      r1,#9
        0x00000da0:    d07a        z.      BEQ      0xe98 ; Draw_my_LCD + 288
        0x00000da2:    2910        .)      CMP      r1,#0x10
        0x00000da4:    d1f6        ..      BNE      0xd94 ; Draw_my_LCD + 28
        0x00000da6:    e0ea        ..      B        0xf7e ; Draw_my_LCD + 518
        0x00000da8:    2100        .!      MOVS     r1,#0
        0x00000daa:    230e        .#      MOVS     r3,#0xe
        0x00000dac:    5ec3        .^      LDRSH    r3,[r0,r3]
        0x00000dae:    2000        .       MOVS     r0,#0
        0x00000db0:    018e        ..      LSLS     r6,r1,#6
        0x00000db2:    01ca        ..      LSLS     r2,r1,#7
        0x00000db4:    4298        .B      CMP      r0,r3
        0x00000db6:    db09        ..      BLT      0xdcc ; Draw_my_LCD + 84
        0x00000db8:    461c        .F      MOV      r4,r3
        0x00000dba:    3440        @4      ADDS     r4,r4,#0x40
        0x00000dbc:    42a0        .B      CMP      r0,r4
        0x00000dbe:    dc05        ..      BGT      0xdcc ; Draw_my_LCD + 84
        0x00000dc0:    1ac4        ..      SUBS     r4,r0,r3
        0x00000dc2:    19a7        ..      ADDS     r7,r4,r6
        0x00000dc4:    4c76        vL      LDR      r4,[pc,#472] ; [0xfa0] = 0x20000008
        0x00000dc6:    3424        $4      ADDS     r4,r4,#0x24
        0x00000dc8:    5de4        .]      LDRB     r4,[r4,r7]
        0x00000dca:    e000        ..      B        0xdce ; Draw_my_LCD + 86
        0x00000dcc:    2400        .$      MOVS     r4,#0
        0x00000dce:    1817        ..      ADDS     r7,r2,r0
        0x00000dd0:    1c40        @.      ADDS     r0,r0,#1
        0x00000dd2:    b200        ..      SXTH     r0,r0
        0x00000dd4:    55ec        .U      STRB     r4,[r5,r7]
        0x00000dd6:    2880        .(      CMP      r0,#0x80
        0x00000dd8:    dbec        ..      BLT      0xdb4 ; Draw_my_LCD + 60
        0x00000dda:    1c49        I.      ADDS     r1,r1,#1
        0x00000ddc:    b209        ..      SXTH     r1,r1
        0x00000dde:    2908        .)      CMP      r1,#8
        0x00000de0:    dbe5        ..      BLT      0xdae ; Draw_my_LCD + 54
        0x00000de2:    e0d9        ..      B        0xf98 ; Draw_my_LCD + 544
        0x00000de4:    2100        .!      MOVS     r1,#0
        0x00000de6:    230e        .#      MOVS     r3,#0xe
        0x00000de8:    5ec3        .^      LDRSH    r3,[r0,r3]
        0x00000dea:    2000        .       MOVS     r0,#0
        0x00000dec:    018e        ..      LSLS     r6,r1,#6
        0x00000dee:    01ca        ..      LSLS     r2,r1,#7
        0x00000df0:    4298        .B      CMP      r0,r3
        0x00000df2:    db08        ..      BLT      0xe06 ; Draw_my_LCD + 142
        0x00000df4:    461c        .F      MOV      r4,r3
        0x00000df6:    3440        @4      ADDS     r4,r4,#0x40
        0x00000df8:    42a0        .B      CMP      r0,r4
        0x00000dfa:    dc04        ..      BGT      0xe06 ; Draw_my_LCD + 142
        0x00000dfc:    1ac4        ..      SUBS     r4,r0,r3
        0x00000dfe:    19a7        ..      ADDS     r7,r4,r6
        0x00000e00:    4c6a        jL      LDR      r4,[pc,#424] ; [0xfac] = 0x2000022c
        0x00000e02:    5de4        .]      LDRB     r4,[r4,r7]
        0x00000e04:    e000        ..      B        0xe08 ; Draw_my_LCD + 144
        0x00000e06:    2400        .$      MOVS     r4,#0
        0x00000e08:    1817        ..      ADDS     r7,r2,r0
        0x00000e0a:    1c40        @.      ADDS     r0,r0,#1
        0x00000e0c:    b200        ..      SXTH     r0,r0
        0x00000e0e:    55ec        .U      STRB     r4,[r5,r7]
        0x00000e10:    2880        .(      CMP      r0,#0x80
        0x00000e12:    dbed        ..      BLT      0xdf0 ; Draw_my_LCD + 120
        0x00000e14:    1c49        I.      ADDS     r1,r1,#1
        0x00000e16:    b209        ..      SXTH     r1,r1
        0x00000e18:    2908        .)      CMP      r1,#8
        0x00000e1a:    dbe6        ..      BLT      0xdea ; Draw_my_LCD + 114
        0x00000e1c:    e0bc        ..      B        0xf98 ; Draw_my_LCD + 544
        0x00000e1e:    2100        .!      MOVS     r1,#0
        0x00000e20:    230e        .#      MOVS     r3,#0xe
        0x00000e22:    5ec3        .^      LDRSH    r3,[r0,r3]
        0x00000e24:    2000        .       MOVS     r0,#0
        0x00000e26:    018e        ..      LSLS     r6,r1,#6
        0x00000e28:    01ca        ..      LSLS     r2,r1,#7
        0x00000e2a:    4298        .B      CMP      r0,r3
        0x00000e2c:    db08        ..      BLT      0xe40 ; Draw_my_LCD + 200
        0x00000e2e:    461c        .F      MOV      r4,r3
        0x00000e30:    3440        @4      ADDS     r4,r4,#0x40
        0x00000e32:    42a0        .B      CMP      r0,r4
        0x00000e34:    dc04        ..      BGT      0xe40 ; Draw_my_LCD + 200
        0x00000e36:    1ac4        ..      SUBS     r4,r0,r3
        0x00000e38:    19a7        ..      ADDS     r7,r4,r6
        0x00000e3a:    4c5d        ]L      LDR      r4,[pc,#372] ; [0xfb0] = 0x2000042c
        0x00000e3c:    5de4        .]      LDRB     r4,[r4,r7]
        0x00000e3e:    e000        ..      B        0xe42 ; Draw_my_LCD + 202
        0x00000e40:    2400        .$      MOVS     r4,#0
        0x00000e42:    1817        ..      ADDS     r7,r2,r0
        0x00000e44:    1c40        @.      ADDS     r0,r0,#1
        0x00000e46:    b200        ..      SXTH     r0,r0
        0x00000e48:    55ec        .U      STRB     r4,[r5,r7]
        0x00000e4a:    2880        .(      CMP      r0,#0x80
        0x00000e4c:    dbed        ..      BLT      0xe2a ; Draw_my_LCD + 178
        0x00000e4e:    1c49        I.      ADDS     r1,r1,#1
        0x00000e50:    b209        ..      SXTH     r1,r1
        0x00000e52:    2908        .)      CMP      r1,#8
        0x00000e54:    dbe6        ..      BLT      0xe24 ; Draw_my_LCD + 172
        0x00000e56:    e09f        ..      B        0xf98 ; Draw_my_LCD + 544
        0x00000e58:    4e53        SN      LDR      r6,[pc,#332] ; [0xfa8] = 0x2000064c
        0x00000e5a:    2300        .#      MOVS     r3,#0
        0x00000e5c:    3e20         >      SUBS     r6,r6,#0x20
        0x00000e5e:    210e        .!      MOVS     r1,#0xe
        0x00000e60:    5e41        A^      LDRSH    r1,[r0,r1]
        0x00000e62:    2000        .       MOVS     r0,#0
        0x00000e64:    4288        .B      CMP      r0,r1
        0x00000e66:    db31        1.      BLT      0xecc ; Draw_my_LCD + 340
        0x00000e68:    460c        .F      MOV      r4,r1
        0x00000e6a:    3440        @4      ADDS     r4,r4,#0x40
        0x00000e6c:    42a0        .B      CMP      r0,r4
        0x00000e6e:    dc2d        -.      BGT      0xecc ; Draw_my_LCD + 340
        0x00000e70:    2b02        .+      CMP      r3,#2
        0x00000e72:    d002        ..      BEQ      0xe7a ; Draw_my_LCD + 258
        0x00000e74:    2b03        .+      CMP      r3,#3
        0x00000e76:    d010        ..      BEQ      0xe9a ; Draw_my_LCD + 290
        0x00000e78:    e01f        ..      B        0xeba ; Draw_my_LCD + 322
        0x00000e7a:    460c        .F      MOV      r4,r1
        0x00000e7c:    3412        .4      ADDS     r4,r4,#0x12
        0x00000e7e:    42a0        .B      CMP      r0,r4
        0x00000e80:    db1b        ..      BLT      0xeba ; Draw_my_LCD + 322
        0x00000e82:    3410        .4      ADDS     r4,r4,#0x10
        0x00000e84:    42a0        .B      CMP      r0,r4
        0x00000e86:    dc18        ..      BGT      0xeba ; Draw_my_LCD + 322
        0x00000e88:    1a44        D.      SUBS     r4,r0,r1
        0x00000e8a:    19a4        ..      ADDS     r4,r4,r6
        0x00000e8c:    3c20         <      SUBS     r4,r4,#0x20
        0x00000e8e:    7ba7        .{      LDRB     r7,[r4,#0xe]
        0x00000e90:    1dc4        ..      ADDS     r4,r0,#7
        0x00000e92:    34f9        .4      ADDS     r4,r4,#0xf9
        0x00000e94:    e00f        ..      B        0xeb6 ; Draw_my_LCD + 318
        0x00000e96:    e025        %.      B        0xee4 ; Draw_my_LCD + 364
        0x00000e98:    e041        A.      B        0xf1e ; Draw_my_LCD + 422
        0x00000e9a:    460c        .F      MOV      r4,r1
        0x00000e9c:    3412        .4      ADDS     r4,r4,#0x12
        0x00000e9e:    42a0        .B      CMP      r0,r4
        0x00000ea0:    db0b        ..      BLT      0xeba ; Draw_my_LCD + 322
        0x00000ea2:    3410        .4      ADDS     r4,r4,#0x10
        0x00000ea4:    42a0        .B      CMP      r0,r4
        0x00000ea6:    dc08        ..      BGT      0xeba ; Draw_my_LCD + 322
        0x00000ea8:    1a44        D.      SUBS     r4,r0,r1
        0x00000eaa:    19a4        ..      ADDS     r4,r4,r6
        0x00000eac:    3c20         <      SUBS     r4,r4,#0x20
        0x00000eae:    7fa7        ..      LDRB     r7,[r4,#0x1e]
        0x00000eb0:    4604        .F      MOV      r4,r0
        0x00000eb2:    34ff        .4      ADDS     r4,r4,#0xff
        0x00000eb4:    3481        .4      ADDS     r4,r4,#0x81
        0x00000eb6:    552f        /U      STRB     r7,[r5,r4]
        0x00000eb8:    e00b        ..      B        0xed2 ; Draw_my_LCD + 346
        0x00000eba:    1a44        D.      SUBS     r4,r0,r1
        0x00000ebc:    019f        ..      LSLS     r7,r3,#6
        0x00000ebe:    19e7        ..      ADDS     r7,r4,r7
        0x00000ec0:    4c3b        ;L      LDR      r4,[pc,#236] ; [0xfb0] = 0x2000042c
        0x00000ec2:    5de4        .]      LDRB     r4,[r4,r7]
        0x00000ec4:    01df        ..      LSLS     r7,r3,#7
        0x00000ec6:    183f        ?.      ADDS     r7,r7,r0
        0x00000ec8:    55ec        .U      STRB     r4,[r5,r7]
        0x00000eca:    e002        ..      B        0xed2 ; Draw_my_LCD + 346
        0x00000ecc:    01dc        ..      LSLS     r4,r3,#7
        0x00000ece:    1824        $.      ADDS     r4,r4,r0
        0x00000ed0:    552a        *U      STRB     r2,[r5,r4]
        0x00000ed2:    1c40        @.      ADDS     r0,r0,#1
        0x00000ed4:    b200        ..      SXTH     r0,r0
        0x00000ed6:    2880        .(      CMP      r0,#0x80
        0x00000ed8:    dbc4        ..      BLT      0xe64 ; Draw_my_LCD + 236
        0x00000eda:    1c5b        [.      ADDS     r3,r3,#1
        0x00000edc:    b21b        ..      SXTH     r3,r3
        0x00000ede:    2b08        .+      CMP      r3,#8
        0x00000ee0:    dbbf        ..      BLT      0xe62 ; Draw_my_LCD + 234
        0x00000ee2:    e059        Y.      B        0xf98 ; Draw_my_LCD + 544
        0x00000ee4:    2100        .!      MOVS     r1,#0
        0x00000ee6:    230e        .#      MOVS     r3,#0xe
        0x00000ee8:    5ec3        .^      LDRSH    r3,[r0,r3]
        0x00000eea:    2000        .       MOVS     r0,#0
        0x00000eec:    018e        ..      LSLS     r6,r1,#6
        0x00000eee:    01ca        ..      LSLS     r2,r1,#7
        0x00000ef0:    4298        .B      CMP      r0,r3
        0x00000ef2:    db08        ..      BLT      0xf06 ; Draw_my_LCD + 398
        0x00000ef4:    461c        .F      MOV      r4,r3
        0x00000ef6:    3440        @4      ADDS     r4,r4,#0x40
        0x00000ef8:    42a0        .B      CMP      r0,r4
        0x00000efa:    dc04        ..      BGT      0xf06 ; Draw_my_LCD + 398
        0x00000efc:    1ac4        ..      SUBS     r4,r0,r3
        0x00000efe:    19a7        ..      ADDS     r7,r4,r6
        0x00000f00:    4c29        )L      LDR      r4,[pc,#164] ; [0xfa8] = 0x2000064c
        0x00000f02:    5de4        .]      LDRB     r4,[r4,r7]
        0x00000f04:    e000        ..      B        0xf08 ; Draw_my_LCD + 400
        0x00000f06:    2400        .$      MOVS     r4,#0
        0x00000f08:    1817        ..      ADDS     r7,r2,r0
        0x00000f0a:    1c40        @.      ADDS     r0,r0,#1
        0x00000f0c:    b200        ..      SXTH     r0,r0
        0x00000f0e:    55ec        .U      STRB     r4,[r5,r7]
        0x00000f10:    2880        .(      CMP      r0,#0x80
        0x00000f12:    dbed        ..      BLT      0xef0 ; Draw_my_LCD + 376
        0x00000f14:    1c49        I.      ADDS     r1,r1,#1
        0x00000f16:    b209        ..      SXTH     r1,r1
        0x00000f18:    2908        .)      CMP      r1,#8
        0x00000f1a:    dbe6        ..      BLT      0xeea ; Draw_my_LCD + 370
        0x00000f1c:    e03c        <.      B        0xf98 ; Draw_my_LCD + 544
        0x00000f1e:    2300        .#      MOVS     r3,#0
        0x00000f20:    210e        .!      MOVS     r1,#0xe
        0x00000f22:    5e41        A^      LDRSH    r1,[r0,r1]
        0x00000f24:    2000        .       MOVS     r0,#0
        0x00000f26:    4288        .B      CMP      r0,r1
        0x00000f28:    db1d        ..      BLT      0xf66 ; Draw_my_LCD + 494
        0x00000f2a:    460e        .F      MOV      r6,r1
        0x00000f2c:    3640        @6      ADDS     r6,r6,#0x40
        0x00000f2e:    42b0        .B      CMP      r0,r6
        0x00000f30:    dc19        ..      BGT      0xf66 ; Draw_my_LCD + 494
        0x00000f32:    2b01        .+      CMP      r3,#1
        0x00000f34:    d10f        ..      BNE      0xf56 ; Draw_my_LCD + 478
        0x00000f36:    3e32        2>      SUBS     r6,r6,#0x32
        0x00000f38:    42b0        .B      CMP      r0,r6
        0x00000f3a:    db0c        ..      BLT      0xf56 ; Draw_my_LCD + 478
        0x00000f3c:    3608        .6      ADDS     r6,r6,#8
        0x00000f3e:    42b0        .B      CMP      r0,r6
        0x00000f40:    dc09        ..      BGT      0xf56 ; Draw_my_LCD + 478
        0x00000f42:    4f17        .O      LDR      r7,[pc,#92] ; [0xfa0] = 0x20000008
        0x00000f44:    1a46        F.      SUBS     r6,r0,r1
        0x00000f46:    371c        .7      ADDS     r7,r7,#0x1c
        0x00000f48:    19f6        ..      ADDS     r6,r6,r7
        0x00000f4a:    3e20         >      SUBS     r6,r6,#0x20
        0x00000f4c:    7cb7        .|      LDRB     r7,[r6,#0x12]
        0x00000f4e:    4606        .F      MOV      r6,r0
        0x00000f50:    3680        .6      ADDS     r6,r6,#0x80
        0x00000f52:    55af        .U      STRB     r7,[r5,r6]
        0x00000f54:    e00a        ..      B        0xf6c ; Draw_my_LCD + 500
        0x00000f56:    1a46        F.      SUBS     r6,r0,r1
        0x00000f58:    019f        ..      LSLS     r7,r3,#6
        0x00000f5a:    19f6        ..      ADDS     r6,r6,r7
        0x00000f5c:    01df        ..      LSLS     r7,r3,#7
        0x00000f5e:    5da6        .]      LDRB     r6,[r4,r6]
        0x00000f60:    183f        ?.      ADDS     r7,r7,r0
        0x00000f62:    55ee        .U      STRB     r6,[r5,r7]
        0x00000f64:    e002        ..      B        0xf6c ; Draw_my_LCD + 500
        0x00000f66:    01de        ..      LSLS     r6,r3,#7
        0x00000f68:    1836        6.      ADDS     r6,r6,r0
        0x00000f6a:    55aa        .U      STRB     r2,[r5,r6]
        0x00000f6c:    1c40        @.      ADDS     r0,r0,#1
        0x00000f6e:    b200        ..      SXTH     r0,r0
        0x00000f70:    2880        .(      CMP      r0,#0x80
        0x00000f72:    dbd8        ..      BLT      0xf26 ; Draw_my_LCD + 430
        0x00000f74:    1c5b        [.      ADDS     r3,r3,#1
        0x00000f76:    b21b        ..      SXTH     r3,r3
        0x00000f78:    2b08        .+      CMP      r3,#8
        0x00000f7a:    dbd3        ..      BLT      0xf24 ; Draw_my_LCD + 428
        0x00000f7c:    e00c        ..      B        0xf98 ; Draw_my_LCD + 544
        0x00000f7e:    2100        .!      MOVS     r1,#0
        0x00000f80:    2000        .       MOVS     r0,#0
        0x00000f82:    01cb        ..      LSLS     r3,r1,#7
        0x00000f84:    181c        ..      ADDS     r4,r3,r0
        0x00000f86:    1c40        @.      ADDS     r0,r0,#1
        0x00000f88:    b200        ..      SXTH     r0,r0
        0x00000f8a:    552a        *U      STRB     r2,[r5,r4]
        0x00000f8c:    2880        .(      CMP      r0,#0x80
        0x00000f8e:    dbf9        ..      BLT      0xf84 ; Draw_my_LCD + 524
        0x00000f90:    1c49        I.      ADDS     r1,r1,#1
        0x00000f92:    b209        ..      SXTH     r1,r1
        0x00000f94:    2908        .)      CMP      r1,#8
        0x00000f96:    dbf3        ..      BLT      0xf80 ; Draw_my_LCD + 520
        0x00000f98:    4802        .H      LDR      r0,[pc,#8] ; [0xfa4] = 0x200008cc
        0x00000f9a:    f001f9be    ....    BL       draw_LCD ; 0x231a
        0x00000f9e:    bdf8        ..      POP      {r3-r7,pc}
    $d
        0x00000fa0:    20000008    ...     DCD    536870920
        0x00000fa4:    200008cc    ...     DCD    536873164
        0x00000fa8:    2000064c    L..     DCD    536872524
        0x00000fac:    2000022c    ,..     DCD    536871468
        0x00000fb0:    2000042c    ,..     DCD    536871980
    $t
    i.FatalChickenFight
    FatalChickenFight
        0x00000fb4:    b5fe        ..      PUSH     {r1-r7,lr}
        0x00000fb6:    2503        .%      MOVS     r5,#3
        0x00000fb8:    2000        .       MOVS     r0,#0
        0x00000fba:    462c        ,F      MOV      r4,r5
        0x00000fbc:    9001        ..      STR      r0,[sp,#4]
        0x00000fbe:    f001f915    ....    BL       clear_LCD ; 0x21ec
        0x00000fc2:    48b8        .H      LDR      r0,[pc,#736] ; [0x12a4] = 0x2000064c
        0x00000fc4:    4eb8        .N      LDR      r6,[pc,#736] ; [0x12a8] = 0xffff
        0x00000fc6:    2300        .#      MOVS     r3,#0
        0x00000fc8:    9000        ..      STR      r0,[sp,#0]
        0x00000fca:    4632        2F      MOV      r2,r6
        0x00000fcc:    4619        .F      MOV      r1,r3
        0x00000fce:    203f        ?       MOVS     r0,#0x3f
        0x00000fd0:    f001f961    ..a.    BL       draw_Bmp64x64 ; 0x2296
        0x00000fd4:    48b5        .H      LDR      r0,[pc,#724] ; [0x12ac] = 0x2000084c
        0x00000fd6:    9000        ..      STR      r0,[sp,#0]
        0x00000fd8:    2300        .#      MOVS     r3,#0
        0x00000fda:    4632        2F      MOV      r2,r6
        0x00000fdc:    211e        .!      MOVS     r1,#0x1e
        0x00000fde:    2001        .       MOVS     r0,#1
        0x00000fe0:    f001f917    ....    BL       draw_Bmp32x32 ; 0x2212
        0x00000fe4:    2000        .       MOVS     r0,#0
        0x00000fe6:    9002        ..      STR      r0,[sp,#8]
        0x00000fe8:    f7fff8c0    ....    BL       rand ; 0x16c
        0x00000fec:    2103        .!      MOVS     r1,#3
        0x00000fee:    f7fff8a9    ....    BL       __aeabi_idiv ; 0x144
        0x00000ff2:    1c4e        N.      ADDS     r6,r1,#1
        0x00000ff4:    49ae        .I      LDR      r1,[pc,#696] ; [0x12b0] = 0x20000008
        0x00000ff6:    2001        .       MOVS     r0,#1
        0x00000ff8:    8148        H.      STRH     r0,[r1,#0xa]
        0x00000ffa:    4628        (F      MOV      r0,r5
        0x00000ffc:    3030        00      ADDS     r0,r0,#0x30
        0x00000ffe:    b2c2        ..      UXTB     r2,r0
        0x00001000:    210f        .!      MOVS     r1,#0xf
        0x00001002:    2000        .       MOVS     r0,#0
        0x00001004:    f002f818    ....    BL       print_C ; 0x3038
        0x00001008:    4620         F      MOV      r0,r4
        0x0000100a:    3030        00      ADDS     r0,r0,#0x30
        0x0000100c:    b2c2        ..      UXTB     r2,r0
        0x0000100e:    2100        .!      MOVS     r1,#0
        0x00001010:    4608        .F      MOV      r0,r1
        0x00001012:    f002f811    ....    BL       print_C ; 0x3038
        0x00001016:    9801        ..      LDR      r0,[sp,#4]
        0x00001018:    e026        &.      B        0x1068 ; FatalChickenFight + 180
        0x0000101a:    9802        ..      LDR      r0,[sp,#8]
        0x0000101c:    2103        .!      MOVS     r1,#3
        0x0000101e:    1c40        @.      ADDS     r0,r0,#1
        0x00001020:    9002        ..      STR      r0,[sp,#8]
        0x00001022:    f7fff88f    ....    BL       __aeabi_idiv ; 0x144
        0x00001026:    1c4f        O.      ADDS     r7,r1,#1
        0x00001028:    4639        9F      MOV      r1,r7
        0x0000102a:    a0a2        ..      ADR      r0,{pc}+0x28a ; 0x12b4
        0x0000102c:    9a01        ..      LDR      r2,[sp,#4]
        0x0000102e:    f000fe33    ..3.    BL       __0printf$1 ; 0x1c98
        0x00001032:    2f01        ./      CMP      r7,#1
        0x00001034:    d001        ..      BEQ      0x103a ; FatalChickenFight + 134
        0x00001036:    2001        .       MOVS     r0,#1
        0x00001038:    e000        ..      B        0x103c ; FatalChickenFight + 136
        0x0000103a:    2000        .       MOVS     r0,#0
        0x0000103c:    49a2        .I      LDR      r1,[pc,#648] ; [0x12c8] = 0x50004240
        0x0000103e:    63c8        .c      STR      r0,[r1,#0x3c]
        0x00001040:    2f02        ./      CMP      r7,#2
        0x00001042:    d001        ..      BEQ      0x1048 ; FatalChickenFight + 148
        0x00001044:    2001        .       MOVS     r0,#1
        0x00001046:    e000        ..      B        0x104a ; FatalChickenFight + 150
        0x00001048:    2000        .       MOVS     r0,#0
        0x0000104a:    499f        .I      LDR      r1,[pc,#636] ; [0x12c8] = 0x50004240
        0x0000104c:    3940        @9      SUBS     r1,r1,#0x40
        0x0000104e:    6388        .c      STR      r0,[r1,#0x38]
        0x00001050:    2f03        ./      CMP      r7,#3
        0x00001052:    d001        ..      BEQ      0x1058 ; FatalChickenFight + 164
        0x00001054:    2001        .       MOVS     r0,#1
        0x00001056:    e000        ..      B        0x105a ; FatalChickenFight + 166
        0x00001058:    2000        .       MOVS     r0,#0
        0x0000105a:    499b        .I      LDR      r1,[pc,#620] ; [0x12c8] = 0x50004240
        0x0000105c:    3180        .1      ADDS     r1,r1,#0x80
        0x0000105e:    6288        .b      STR      r0,[r1,#0x28]
        0x00001060:    4638        8F      MOV      r0,r7
        0x00001062:    f7fffd99    ....    BL       CheckADC ; 0xb98
        0x00001066:    9001        ..      STR      r0,[sp,#4]
        0x00001068:    2800        .(      CMP      r0,#0
        0x0000106a:    d0d6        ..      BEQ      0x101a ; FatalChickenFight + 102
        0x0000106c:    4990        .I      LDR      r1,[pc,#576] ; [0x12b0] = 0x20000008
        0x0000106e:    2000        .       MOVS     r0,#0
        0x00001070:    8148        H.      STRH     r0,[r1,#0xa]
        0x00001072:    4630        0F      MOV      r0,r6
        0x00001074:    3030        00      ADDS     r0,r0,#0x30
        0x00001076:    b2c2        ..      UXTB     r2,r0
        0x00001078:    2103        .!      MOVS     r1,#3
        0x0000107a:    2000        .       MOVS     r0,#0
        0x0000107c:    f001ffdc    ....    BL       print_C ; 0x3038
        0x00001080:    4632        2F      MOV      r2,r6
        0x00001082:    a092        ..      ADR      r0,{pc}+0x24a ; 0x12cc
        0x00001084:    9901        ..      LDR      r1,[sp,#4]
        0x00001086:    f000fe07    ....    BL       __0printf$1 ; 0x1c98
        0x0000108a:    9801        ..      LDR      r0,[sp,#4]
        0x0000108c:    2801        .(      CMP      r0,#1
        0x0000108e:    d004        ..      BEQ      0x109a ; FatalChickenFight + 230
        0x00001090:    2802        .(      CMP      r0,#2
        0x00001092:    d05e        ^.      BEQ      0x1152 ; FatalChickenFight + 414
        0x00001094:    2803        .(      CMP      r0,#3
        0x00001096:    d118        ..      BNE      0x10ca ; FatalChickenFight + 278
        0x00001098:    e089        ..      B        0x11ae ; FatalChickenFight + 506
        0x0000109a:    2e01        ..      CMP      r6,#1
        0x0000109c:    d016        ..      BEQ      0x10cc ; FatalChickenFight + 280
        0x0000109e:    2708        .'      MOVS     r7,#8
        0x000010a0:    b2f9        ..      UXTB     r1,r7
        0x000010a2:    226f        o"      MOVS     r2,#0x6f
        0x000010a4:    2002        .       MOVS     r0,#2
        0x000010a6:    f001ffc7    ....    BL       print_C ; 0x3038
        0x000010aa:    488d        .H      LDR      r0,[pc,#564] ; [0x12e0] = 0xc3500
        0x000010ac:    f7fffcd8    ....    BL       CLK_SysTickDelay ; 0xa60
        0x000010b0:    b2f9        ..      UXTB     r1,r7
        0x000010b2:    2220         "      MOVS     r2,#0x20
        0x000010b4:    2002        .       MOVS     r0,#2
        0x000010b6:    f001ffbf    ....    BL       print_C ; 0x3038
        0x000010ba:    1e7f        ..      SUBS     r7,r7,#1
        0x000010bc:    2f04        ./      CMP      r7,#4
        0x000010be:    dcef        ..      BGT      0x10a0 ; FatalChickenFight + 236
        0x000010c0:    2e02        ..      CMP      r6,#2
        0x000010c2:    d002        ..      BEQ      0x10ca ; FatalChickenFight + 278
        0x000010c4:    1e64        d.      SUBS     r4,r4,#1
        0x000010c6:    2e03        ..      CMP      r6,#3
        0x000010c8:    d031        1.      BEQ      0x112e ; FatalChickenFight + 378
        0x000010ca:    e09c        ..      B        0x1206 ; FatalChickenFight + 594
        0x000010cc:    226f        o"      MOVS     r2,#0x6f
        0x000010ce:    2105        .!      MOVS     r1,#5
        0x000010d0:    2002        .       MOVS     r0,#2
        0x000010d2:    f001ffb1    ....    BL       print_C ; 0x3038
        0x000010d6:    226f        o"      MOVS     r2,#0x6f
        0x000010d8:    2108        .!      MOVS     r1,#8
        0x000010da:    2002        .       MOVS     r0,#2
        0x000010dc:    f001ffac    ....    BL       print_C ; 0x3038
        0x000010e0:    4e80        .N      LDR      r6,[pc,#512] ; [0x12e4] = 0xdbba0
        0x000010e2:    4630        0F      MOV      r0,r6
        0x000010e4:    f7fffcbc    ....    BL       CLK_SysTickDelay ; 0xa60
        0x000010e8:    2220         "      MOVS     r2,#0x20
        0x000010ea:    2105        .!      MOVS     r1,#5
        0x000010ec:    2002        .       MOVS     r0,#2
        0x000010ee:    f001ffa3    ....    BL       print_C ; 0x3038
        0x000010f2:    2220         "      MOVS     r2,#0x20
        0x000010f4:    2108        .!      MOVS     r1,#8
        0x000010f6:    2002        .       MOVS     r0,#2
        0x000010f8:    f001ff9e    ....    BL       print_C ; 0x3038
        0x000010fc:    226f        o"      MOVS     r2,#0x6f
        0x000010fe:    2106        .!      MOVS     r1,#6
        0x00001100:    2002        .       MOVS     r0,#2
        0x00001102:    f001ff99    ....    BL       print_C ; 0x3038
        0x00001106:    226f        o"      MOVS     r2,#0x6f
        0x00001108:    2107        .!      MOVS     r1,#7
        0x0000110a:    2002        .       MOVS     r0,#2
        0x0000110c:    f001ff94    ....    BL       print_C ; 0x3038
        0x00001110:    4630        0F      MOV      r0,r6
        0x00001112:    f7fffca5    ....    BL       CLK_SysTickDelay ; 0xa60
        0x00001116:    2220         "      MOVS     r2,#0x20
        0x00001118:    2106        .!      MOVS     r1,#6
        0x0000111a:    2002        .       MOVS     r0,#2
        0x0000111c:    f001ff8c    ....    BL       print_C ; 0x3038
        0x00001120:    2220         "      MOVS     r2,#0x20
        0x00001122:    2107        .!      MOVS     r1,#7
        0x00001124:    2002        .       MOVS     r0,#2
        0x00001126:    f001ff87    ....    BL       print_C ; 0x3038
        0x0000112a:    1e64        d.      SUBS     r4,r4,#1
        0x0000112c:    e0b7        ..      B        0x129e ; FatalChickenFight + 746
        0x0000112e:    4f6e        nO      LDR      r7,[pc,#440] ; [0x12e8] = 0x7a120
        0x00001130:    2603        .&      MOVS     r6,#3
        0x00001132:    b2f0        ..      UXTB     r0,r6
        0x00001134:    222a        *"      MOVS     r2,#0x2a
        0x00001136:    2105        .!      MOVS     r1,#5
        0x00001138:    f001ff7e    ..~.    BL       print_C ; 0x3038
        0x0000113c:    4638        8F      MOV      r0,r7
        0x0000113e:    f7fffc8f    ....    BL       CLK_SysTickDelay ; 0xa60
        0x00001142:    b2f0        ..      UXTB     r0,r6
        0x00001144:    2220         "      MOVS     r2,#0x20
        0x00001146:    2105        .!      MOVS     r1,#5
        0x00001148:    f001ff76    ..v.    BL       print_C ; 0x3038
        0x0000114c:    1e76        v.      SUBS     r6,r6,#1
        0x0000114e:    d5f0        ..      BPL      0x1132 ; FatalChickenFight + 382
        0x00001150:    e059        Y.      B        0x1206 ; FatalChickenFight + 594
        0x00001152:    2e01        ..      CMP      r6,#1
        0x00001154:    d002        ..      BEQ      0x115c ; FatalChickenFight + 424
        0x00001156:    2e03        ..      CMP      r6,#3
        0x00001158:    d013        ..      BEQ      0x1182 ; FatalChickenFight + 462
        0x0000115a:    e054        T.      B        0x1206 ; FatalChickenFight + 594
        0x0000115c:    4f62        bO      LDR      r7,[pc,#392] ; [0x12e8] = 0x7a120
        0x0000115e:    2605        .&      MOVS     r6,#5
        0x00001160:    b2f1        ..      UXTB     r1,r6
        0x00001162:    226f        o"      MOVS     r2,#0x6f
        0x00001164:    2002        .       MOVS     r0,#2
        0x00001166:    f001ff67    ..g.    BL       print_C ; 0x3038
        0x0000116a:    4638        8F      MOV      r0,r7
        0x0000116c:    f7fffc78    ..x.    BL       CLK_SysTickDelay ; 0xa60
        0x00001170:    b2f1        ..      UXTB     r1,r6
        0x00001172:    2220         "      MOVS     r2,#0x20
        0x00001174:    2002        .       MOVS     r0,#2
        0x00001176:    f001ff5f    .._.    BL       print_C ; 0x3038
        0x0000117a:    1c76        v.      ADDS     r6,r6,#1
        0x0000117c:    2e09        ..      CMP      r6,#9
        0x0000117e:    dbef        ..      BLT      0x1160 ; FatalChickenFight + 428
        0x00001180:    e041        A.      B        0x1206 ; FatalChickenFight + 594
        0x00001182:    4f59        YO      LDR      r7,[pc,#356] ; [0x12e8] = 0x7a120
        0x00001184:    2603        .&      MOVS     r6,#3
        0x00001186:    b2f0        ..      UXTB     r0,r6
        0x00001188:    222a        *"      MOVS     r2,#0x2a
        0x0000118a:    2105        .!      MOVS     r1,#5
        0x0000118c:    f001ff54    ..T.    BL       print_C ; 0x3038
        0x00001190:    4638        8F      MOV      r0,r7
        0x00001192:    f7fffc65    ..e.    BL       CLK_SysTickDelay ; 0xa60
        0x00001196:    b2f0        ..      UXTB     r0,r6
        0x00001198:    2220         "      MOVS     r2,#0x20
        0x0000119a:    2105        .!      MOVS     r1,#5
        0x0000119c:    f001ff4c    ..L.    BL       print_C ; 0x3038
        0x000011a0:    1e76        v.      SUBS     r6,r6,#1
        0x000011a2:    d5f0        ..      BPL      0x1186 ; FatalChickenFight + 466
        0x000011a4:    1c64        d.      ADDS     r4,r4,#1
        0x000011a6:    2c05        .,      CMP      r4,#5
        0x000011a8:    dd2d        -.      BLE      0x1206 ; FatalChickenFight + 594
        0x000011aa:    2405        .$      MOVS     r4,#5
        0x000011ac:    e02b        +.      B        0x1206 ; FatalChickenFight + 594
        0x000011ae:    2703        .'      MOVS     r7,#3
        0x000011b0:    b2f8        ..      UXTB     r0,r7
        0x000011b2:    222a        *"      MOVS     r2,#0x2a
        0x000011b4:    2107        .!      MOVS     r1,#7
        0x000011b6:    f001ff3f    ..?.    BL       print_C ; 0x3038
        0x000011ba:    484b        KH      LDR      r0,[pc,#300] ; [0x12e8] = 0x7a120
        0x000011bc:    f7fffc50    ..P.    BL       CLK_SysTickDelay ; 0xa60
        0x000011c0:    b2f8        ..      UXTB     r0,r7
        0x000011c2:    2220         "      MOVS     r2,#0x20
        0x000011c4:    2107        .!      MOVS     r1,#7
        0x000011c6:    f001ff37    ..7.    BL       print_C ; 0x3038
        0x000011ca:    1e7f        ..      SUBS     r7,r7,#1
        0x000011cc:    d5f0        ..      BPL      0x11b0 ; FatalChickenFight + 508
        0x000011ce:    2e03        ..      CMP      r6,#3
        0x000011d0:    d113        ..      BNE      0x11fa ; FatalChickenFight + 582
        0x000011d2:    2703        .'      MOVS     r7,#3
        0x000011d4:    b2f8        ..      UXTB     r0,r7
        0x000011d6:    222a        *"      MOVS     r2,#0x2a
        0x000011d8:    2105        .!      MOVS     r1,#5
        0x000011da:    f001ff2d    ..-.    BL       print_C ; 0x3038
        0x000011de:    4842        BH      LDR      r0,[pc,#264] ; [0x12e8] = 0x7a120
        0x000011e0:    f7fffc3e    ..>.    BL       CLK_SysTickDelay ; 0xa60
        0x000011e4:    b2f8        ..      UXTB     r0,r7
        0x000011e6:    2220         "      MOVS     r2,#0x20
        0x000011e8:    2105        .!      MOVS     r1,#5
        0x000011ea:    f001ff25    ..%.    BL       print_C ; 0x3038
        0x000011ee:    1e7f        ..      SUBS     r7,r7,#1
        0x000011f0:    d5f0        ..      BPL      0x11d4 ; FatalChickenFight + 544
        0x000011f2:    1c64        d.      ADDS     r4,r4,#1
        0x000011f4:    2c05        .,      CMP      r4,#5
        0x000011f6:    dd00        ..      BLE      0x11fa ; FatalChickenFight + 582
        0x000011f8:    2405        .$      MOVS     r4,#5
        0x000011fa:    2e01        ..      CMP      r6,#1
        0x000011fc:    d03d        =.      BEQ      0x127a ; FatalChickenFight + 710
        0x000011fe:    1c6d        m.      ADDS     r5,r5,#1
        0x00001200:    2d05        .-      CMP      r5,#5
        0x00001202:    dd00        ..      BLE      0x1206 ; FatalChickenFight + 594
        0x00001204:    2505        .%      MOVS     r5,#5
        0x00001206:    4827        'H      LDR      r0,[pc,#156] ; [0x12a4] = 0x2000064c
        0x00001208:    2300        .#      MOVS     r3,#0
        0x0000120a:    9000        ..      STR      r0,[sp,#0]
        0x0000120c:    4a26        &J      LDR      r2,[pc,#152] ; [0x12a8] = 0xffff
        0x0000120e:    4619        .F      MOV      r1,r3
        0x00001210:    203f        ?       MOVS     r0,#0x3f
        0x00001212:    f001f840    ..@.    BL       draw_Bmp64x64 ; 0x2296
        0x00001216:    2000        .       MOVS     r0,#0
        0x00001218:    9001        ..      STR      r0,[sp,#4]
        0x0000121a:    f7feffa7    ....    BL       rand ; 0x16c
        0x0000121e:    2103        .!      MOVS     r1,#3
        0x00001220:    f7feff90    ....    BL       __aeabi_idiv ; 0x144
        0x00001224:    1c4e        N.      ADDS     r6,r1,#1
        0x00001226:    2220         "      MOVS     r2,#0x20
        0x00001228:    2103        .!      MOVS     r1,#3
        0x0000122a:    2000        .       MOVS     r0,#0
        0x0000122c:    f001ff04    ....    BL       print_C ; 0x3038
        0x00001230:    2d00        .-      CMP      r5,#0
        0x00001232:    dd02        ..      BLE      0x123a ; FatalChickenFight + 646
        0x00001234:    2c00        .,      CMP      r4,#0
        0x00001236:    dd00        ..      BLE      0x123a ; FatalChickenFight + 646
        0x00001238:    e6dc        ..      B        0xff4 ; FatalChickenFight + 64
        0x0000123a:    3530        05      ADDS     r5,r5,#0x30
        0x0000123c:    b2ea        ..      UXTB     r2,r5
        0x0000123e:    210f        .!      MOVS     r1,#0xf
        0x00001240:    2000        .       MOVS     r0,#0
        0x00001242:    f001fef9    ....    BL       print_C ; 0x3038
        0x00001246:    3430        04      ADDS     r4,r4,#0x30
        0x00001248:    2100        .!      MOVS     r1,#0
        0x0000124a:    b2e2        ..      UXTB     r2,r4
        0x0000124c:    4608        .F      MOV      r0,r1
        0x0000124e:    f001fef3    ....    BL       print_C ; 0x3038
        0x00001252:    4817        .H      LDR      r0,[pc,#92] ; [0x12b0] = 0x20000008
        0x00001254:    2107        .!      MOVS     r1,#7
        0x00001256:    8081        ..      STRH     r1,[r0,#4]
        0x00001258:    2100        .!      MOVS     r1,#0
        0x0000125a:    8201        ..      STRH     r1,[r0,#0x10]
        0x0000125c:    2215        ."      MOVS     r2,#0x15
        0x0000125e:    8002        ..      STRH     r2,[r0,#0]
        0x00001260:    4a19        .J      LDR      r2,[pc,#100] ; [0x12c8] = 0x50004240
        0x00001262:    2001        .       MOVS     r0,#1
        0x00001264:    63d0        .c      STR      r0,[r2,#0x3c]
        0x00001266:    4a18        .J      LDR      r2,[pc,#96] ; [0x12c8] = 0x50004240
        0x00001268:    3a40        @:      SUBS     r2,r2,#0x40
        0x0000126a:    6391        .c      STR      r1,[r2,#0x38]
        0x0000126c:    4916        .I      LDR      r1,[pc,#88] ; [0x12c8] = 0x50004240
        0x0000126e:    3180        .1      ADDS     r1,r1,#0x80
        0x00001270:    6288        .b      STR      r0,[r1,#0x28]
        0x00001272:    481b        .H      LDR      r0,[pc,#108] ; [0x12e0] = 0xc3500
        0x00001274:    f7fffbf4    ....    BL       CLK_SysTickDelay ; 0xa60
        0x00001278:    bdfe        ..      POP      {r1-r7,pc}
        0x0000127a:    4f1b        .O      LDR      r7,[pc,#108] ; [0x12e8] = 0x7a120
        0x0000127c:    2605        .&      MOVS     r6,#5
        0x0000127e:    b2f1        ..      UXTB     r1,r6
        0x00001280:    226f        o"      MOVS     r2,#0x6f
        0x00001282:    2002        .       MOVS     r0,#2
        0x00001284:    f001fed8    ....    BL       print_C ; 0x3038
        0x00001288:    4638        8F      MOV      r0,r7
        0x0000128a:    f7fffbe9    ....    BL       CLK_SysTickDelay ; 0xa60
        0x0000128e:    b2f1        ..      UXTB     r1,r6
        0x00001290:    2220         "      MOVS     r2,#0x20
        0x00001292:    2002        .       MOVS     r0,#2
        0x00001294:    f001fed0    ....    BL       print_C ; 0x3038
        0x00001298:    1c76        v.      ADDS     r6,r6,#1
        0x0000129a:    2e09        ..      CMP      r6,#9
        0x0000129c:    dbef        ..      BLT      0x127e ; FatalChickenFight + 714
        0x0000129e:    1e6d        m.      SUBS     r5,r5,#1
        0x000012a0:    e7b1        ..      B        0x1206 ; FatalChickenFight + 594
    $d
        0x000012a2:    0000        ..      DCW    0
        0x000012a4:    2000064c    L..     DCD    536872524
        0x000012a8:    0000ffff    ....    DCD    65535
        0x000012ac:    2000084c    L..     DCD    536873036
        0x000012b0:    20000008    ...     DCD    536870920
        0x000012b4:    6c6c6568    hell    DCD    1819043176
        0x000012b8:    7e7e7e6f    o~~~    DCD    2122219119
        0x000012bc:    25207e7e    ~~ %    DCD    622886526
        0x000012c0:    64252064    d %d    DCD    1680154724
        0x000012c4:    0000000a    ....    DCD    10
        0x000012c8:    50004240    @B.P    DCD    1342194240
        0x000012cc:    3d20796d    my =    DCD    1025538413
        0x000012d0:    2c642520     %d,    DCD    744760608
        0x000012d4:    68746f20     oth    DCD    1752461088
        0x000012d8:    25203d20     = %    DCD    622869792
        0x000012dc:    00000a64    d...    DCD    2660
        0x000012e0:    000c3500    .5..    DCD    800000
        0x000012e4:    000dbba0    ....    DCD    900000
        0x000012e8:    0007a120     ...    DCD    500000
    $t
    i.GPIO_SetMode
    GPIO_SetMode
        0x000012ec:    b5f0        ..      PUSH     {r4-r7,lr}
        0x000012ee:    2300        .#      MOVS     r3,#0
        0x000012f0:    2701        .'      MOVS     r7,#1
        0x000012f2:    463c        <F      MOV      r4,r7
        0x000012f4:    409c        .@      LSLS     r4,r4,r3
        0x000012f6:    420c        .B      TST      r4,r1
        0x000012f8:    d008        ..      BEQ      0x130c ; GPIO_SetMode + 32
        0x000012fa:    6805        .h      LDR      r5,[r0,#0]
        0x000012fc:    005c        \.      LSLS     r4,r3,#1
        0x000012fe:    2603        .&      MOVS     r6,#3
        0x00001300:    40a6        .@      LSLS     r6,r6,r4
        0x00001302:    43b5        .C      BICS     r5,r5,r6
        0x00001304:    4616        .F      MOV      r6,r2
        0x00001306:    40a6        .@      LSLS     r6,r6,r4
        0x00001308:    4335        5C      ORRS     r5,r5,r6
        0x0000130a:    6005        .`      STR      r5,[r0,#0]
        0x0000130c:    1c5b        [.      ADDS     r3,r3,#1
        0x0000130e:    2b10        .+      CMP      r3,#0x10
        0x00001310:    d3ef        ..      BCC      0x12f2 ; GPIO_SetMode + 6
        0x00001312:    bdf0        ..      POP      {r4-r7,pc}
    i.I2C_Open
    I2C_Open
        0x00001314:    b570        p.      PUSH     {r4-r6,lr}
        0x00001316:    460e        .F      MOV      r6,r1
        0x00001318:    4604        .F      MOV      r4,r0
        0x0000131a:    f7fffb13    ....    BL       CLK_GetPCLKFreq ; 0x944
        0x0000131e:    4605        .F      MOV      r5,r0
        0x00001320:    220a        ."      MOVS     r2,#0xa
        0x00001322:    00b1        ..      LSLS     r1,r6,#2
        0x00001324:    4350        PC      MULS     r0,r2,r0
        0x00001326:    f7fefef7    ....    BL       __aeabi_uidiv ; 0x118
        0x0000132a:    210a        .!      MOVS     r1,#0xa
        0x0000132c:    1d40        @.      ADDS     r0,r0,#5
        0x0000132e:    f7fefef3    ....    BL       __aeabi_uidiv ; 0x118
        0x00001332:    1e40        @.      SUBS     r0,r0,#1
        0x00001334:    60e0        .`      STR      r0,[r4,#0xc]
        0x00001336:    6821        !h      LDR      r1,[r4,#0]
        0x00001338:    2201        ."      MOVS     r2,#1
        0x0000133a:    4311        .C      ORRS     r1,r1,r2
        0x0000133c:    6021        !`      STR      r1,[r4,#0]
        0x0000133e:    0081        ..      LSLS     r1,r0,#2
        0x00001340:    4628        (F      MOV      r0,r5
        0x00001342:    1d09        ..      ADDS     r1,r1,#4
        0x00001344:    f7fefee8    ....    BL       __aeabi_uidiv ; 0x118
        0x00001348:    bd70        p.      POP      {r4-r6,pc}
    i.I2C_readBytes
    I2C_readBytes
        0x0000134a:    b5f0        ..      PUSH     {r4-r7,lr}
        0x0000134c:    9c05        ..      LDR      r4,[sp,#0x14]
        0x0000134e:    6805        .h      LDR      r5,[r0,#0]
        0x00001350:    2610        .&      MOVS     r6,#0x10
        0x00001352:    43b5        .C      BICS     r5,r5,r6
        0x00001354:    2608        .&      MOVS     r6,#8
        0x00001356:    4335        5C      ORRS     r5,r5,r6
        0x00001358:    6005        .`      STR      r5,[r0,#0]
        0x0000135a:    6845        Eh      LDR      r5,[r0,#4]
        0x0000135c:    07ed        ..      LSLS     r5,r5,#31
        0x0000135e:    d0fc        ..      BEQ      0x135a ; I2C_readBytes + 16
        0x00001360:    6845        Eh      LDR      r5,[r0,#4]
        0x00001362:    2701        .'      MOVS     r7,#1
        0x00001364:    433d        =C      ORRS     r5,r5,r7
        0x00001366:    6045        E`      STR      r5,[r0,#4]
        0x00001368:    6141        Aa      STR      r1,[r0,#0x14]
        0x0000136a:    6806        .h      LDR      r6,[r0,#0]
        0x0000136c:    251e        .%      MOVS     r5,#0x1e
        0x0000136e:    43ae        .C      BICS     r6,r6,r5
        0x00001370:    3610        .6      ADDS     r6,r6,#0x10
        0x00001372:    6006        .`      STR      r6,[r0,#0]
        0x00001374:    6846        Fh      LDR      r6,[r0,#4]
        0x00001376:    07f6        ..      LSLS     r6,r6,#31
        0x00001378:    d0fc        ..      BEQ      0x1374 ; I2C_readBytes + 42
        0x0000137a:    6846        Fh      LDR      r6,[r0,#4]
        0x0000137c:    433e        >C      ORRS     r6,r6,r7
        0x0000137e:    6046        F`      STR      r6,[r0,#4]
        0x00001380:    6142        Ba      STR      r2,[r0,#0x14]
        0x00001382:    6802        .h      LDR      r2,[r0,#0]
        0x00001384:    43aa        .C      BICS     r2,r2,r5
        0x00001386:    3210        .2      ADDS     r2,r2,#0x10
        0x00001388:    6002        .`      STR      r2,[r0,#0]
        0x0000138a:    6842        Bh      LDR      r2,[r0,#4]
        0x0000138c:    07d2        ..      LSLS     r2,r2,#31
        0x0000138e:    d0fc        ..      BEQ      0x138a ; I2C_readBytes + 64
        0x00001390:    6842        Bh      LDR      r2,[r0,#4]
        0x00001392:    433a        :C      ORRS     r2,r2,r7
        0x00001394:    6042        B`      STR      r2,[r0,#4]
        0x00001396:    6802        .h      LDR      r2,[r0,#0]
        0x00001398:    43aa        .C      BICS     r2,r2,r5
        0x0000139a:    3218        .2      ADDS     r2,r2,#0x18
        0x0000139c:    6002        .`      STR      r2,[r0,#0]
        0x0000139e:    6842        Bh      LDR      r2,[r0,#4]
        0x000013a0:    07d2        ..      LSLS     r2,r2,#31
        0x000013a2:    d0fc        ..      BEQ      0x139e ; I2C_readBytes + 84
        0x000013a4:    6842        Bh      LDR      r2,[r0,#4]
        0x000013a6:    433a        :C      ORRS     r2,r2,r7
        0x000013a8:    6042        B`      STR      r2,[r0,#4]
        0x000013aa:    1c49        I.      ADDS     r1,r1,#1
        0x000013ac:    6141        Aa      STR      r1,[r0,#0x14]
        0x000013ae:    6801        .h      LDR      r1,[r0,#0]
        0x000013b0:    43a9        .C      BICS     r1,r1,r5
        0x000013b2:    3110        .1      ADDS     r1,r1,#0x10
        0x000013b4:    6001        .`      STR      r1,[r0,#0]
        0x000013b6:    6841        Ah      LDR      r1,[r0,#4]
        0x000013b8:    07c9        ..      LSLS     r1,r1,#31
        0x000013ba:    d0fc        ..      BEQ      0x13b6 ; I2C_readBytes + 108
        0x000013bc:    6841        Ah      LDR      r1,[r0,#4]
        0x000013be:    4339        9C      ORRS     r1,r1,r7
        0x000013c0:    6041        A`      STR      r1,[r0,#4]
        0x000013c2:    2100        .!      MOVS     r1,#0
        0x000013c4:    e00d        ..      B        0x13e2 ; I2C_readBytes + 152
        0x000013c6:    6802        .h      LDR      r2,[r0,#0]
        0x000013c8:    43aa        .C      BICS     r2,r2,r5
        0x000013ca:    3210        .2      ADDS     r2,r2,#0x10
        0x000013cc:    6002        .`      STR      r2,[r0,#0]
        0x000013ce:    6842        Bh      LDR      r2,[r0,#4]
        0x000013d0:    07d2        ..      LSLS     r2,r2,#31
        0x000013d2:    d0fc        ..      BEQ      0x13ce ; I2C_readBytes + 132
        0x000013d4:    6842        Bh      LDR      r2,[r0,#4]
        0x000013d6:    433a        :C      ORRS     r2,r2,r7
        0x000013d8:    6042        B`      STR      r2,[r0,#4]
        0x000013da:    6942        Bi      LDR      r2,[r0,#0x14]
        0x000013dc:    5462        bT      STRB     r2,[r4,r1]
        0x000013de:    1c49        I.      ADDS     r1,r1,#1
        0x000013e0:    b2c9        ..      UXTB     r1,r1
        0x000013e2:    4299        .B      CMP      r1,r3
        0x000013e4:    d3ef        ..      BCC      0x13c6 ; I2C_readBytes + 124
        0x000013e6:    6801        .h      LDR      r1,[r0,#0]
        0x000013e8:    2214        ."      MOVS     r2,#0x14
        0x000013ea:    4311        .C      ORRS     r1,r1,r2
        0x000013ec:    6001        .`      STR      r1,[r0,#0]
        0x000013ee:    6801        .h      LDR      r1,[r0,#0]
        0x000013f0:    0749        I.      LSLS     r1,r1,#29
        0x000013f2:    d4fc        ..      BMI      0x13ee ; I2C_readBytes + 164
        0x000013f4:    bdf0        ..      POP      {r4-r7,pc}
    i.I2C_writeBytes
    I2C_writeBytes
        0x000013f6:    b570        p.      PUSH     {r4-r6,lr}
        0x000013f8:    9c04        ..      LDR      r4,[sp,#0x10]
        0x000013fa:    6805        .h      LDR      r5,[r0,#0]
        0x000013fc:    2610        .&      MOVS     r6,#0x10
        0x000013fe:    43b5        .C      BICS     r5,r5,r6
        0x00001400:    2608        .&      MOVS     r6,#8
        0x00001402:    4335        5C      ORRS     r5,r5,r6
        0x00001404:    6005        .`      STR      r5,[r0,#0]
        0x00001406:    6845        Eh      LDR      r5,[r0,#4]
        0x00001408:    07ed        ..      LSLS     r5,r5,#31
        0x0000140a:    d0fc        ..      BEQ      0x1406 ; I2C_writeBytes + 16
        0x0000140c:    6846        Fh      LDR      r6,[r0,#4]
        0x0000140e:    2501        .%      MOVS     r5,#1
        0x00001410:    432e        .C      ORRS     r6,r6,r5
        0x00001412:    6046        F`      STR      r6,[r0,#4]
        0x00001414:    6141        Aa      STR      r1,[r0,#0x14]
        0x00001416:    6801        .h      LDR      r1,[r0,#0]
        0x00001418:    261e        .&      MOVS     r6,#0x1e
        0x0000141a:    43b1        .C      BICS     r1,r1,r6
        0x0000141c:    3110        .1      ADDS     r1,r1,#0x10
        0x0000141e:    6001        .`      STR      r1,[r0,#0]
        0x00001420:    6841        Ah      LDR      r1,[r0,#4]
        0x00001422:    07c9        ..      LSLS     r1,r1,#31
        0x00001424:    d0fc        ..      BEQ      0x1420 ; I2C_writeBytes + 42
        0x00001426:    6841        Ah      LDR      r1,[r0,#4]
        0x00001428:    4329        )C      ORRS     r1,r1,r5
        0x0000142a:    6041        A`      STR      r1,[r0,#4]
        0x0000142c:    6142        Ba      STR      r2,[r0,#0x14]
        0x0000142e:    6801        .h      LDR      r1,[r0,#0]
        0x00001430:    43b1        .C      BICS     r1,r1,r6
        0x00001432:    3110        .1      ADDS     r1,r1,#0x10
        0x00001434:    6001        .`      STR      r1,[r0,#0]
        0x00001436:    6841        Ah      LDR      r1,[r0,#4]
        0x00001438:    07c9        ..      LSLS     r1,r1,#31
        0x0000143a:    d0fc        ..      BEQ      0x1436 ; I2C_writeBytes + 64
        0x0000143c:    6841        Ah      LDR      r1,[r0,#4]
        0x0000143e:    4329        )C      ORRS     r1,r1,r5
        0x00001440:    6041        A`      STR      r1,[r0,#4]
        0x00001442:    2100        .!      MOVS     r1,#0
        0x00001444:    e00d        ..      B        0x1462 ; I2C_writeBytes + 108
        0x00001446:    5c62        b\      LDRB     r2,[r4,r1]
        0x00001448:    6142        Ba      STR      r2,[r0,#0x14]
        0x0000144a:    6802        .h      LDR      r2,[r0,#0]
        0x0000144c:    43b2        .C      BICS     r2,r2,r6
        0x0000144e:    3210        .2      ADDS     r2,r2,#0x10
        0x00001450:    6002        .`      STR      r2,[r0,#0]
        0x00001452:    6842        Bh      LDR      r2,[r0,#4]
        0x00001454:    07d2        ..      LSLS     r2,r2,#31
        0x00001456:    d0fc        ..      BEQ      0x1452 ; I2C_writeBytes + 92
        0x00001458:    6842        Bh      LDR      r2,[r0,#4]
        0x0000145a:    432a        *C      ORRS     r2,r2,r5
        0x0000145c:    6042        B`      STR      r2,[r0,#4]
        0x0000145e:    1c49        I.      ADDS     r1,r1,#1
        0x00001460:    b2c9        ..      UXTB     r1,r1
        0x00001462:    4299        .B      CMP      r1,r3
        0x00001464:    d3ef        ..      BCC      0x1446 ; I2C_writeBytes + 80
        0x00001466:    6801        .h      LDR      r1,[r0,#0]
        0x00001468:    2214        ."      MOVS     r2,#0x14
        0x0000146a:    4311        .C      ORRS     r1,r1,r2
        0x0000146c:    6001        .`      STR      r1,[r0,#0]
        0x0000146e:    6801        .h      LDR      r1,[r0,#0]
        0x00001470:    0749        I.      LSLS     r1,r1,#29
        0x00001472:    d4fc        ..      BMI      0x146e ; I2C_writeBytes + 120
        0x00001474:    bd70        p.      POP      {r4-r6,pc}
        0x00001476:    0000        ..      MOVS     r0,r0
    i.Init_ADC
    Init_ADC
        0x00001478:    b510        ..      PUSH     {r4,lr}
        0x0000147a:    2310        .#      MOVS     r3,#0x10
        0x0000147c:    220c        ."      MOVS     r2,#0xc
        0x0000147e:    2100        .!      MOVS     r1,#0
        0x00001480:    480a        .H      LDR      r0,[pc,#40] ; [0x14ac] = 0x400e0000
        0x00001482:    f7fff9db    ....    BL       ADC_Open ; 0x83c
        0x00001486:    4809        .H      LDR      r0,[pc,#36] ; [0x14ac] = 0x400e0000
        0x00001488:    3040        @0      ADDS     r0,r0,#0x40
        0x0000148a:    6881        .h      LDR      r1,[r0,#8]
        0x0000148c:    2201        ."      MOVS     r2,#1
        0x0000148e:    4311        .C      ORRS     r1,r1,r2
        0x00001490:    6081        .`      STR      r1,[r0,#8]
        0x00001492:    6981        .i      LDR      r1,[r0,#0x18]
        0x00001494:    03c9        ..      LSLS     r1,r1,#15
        0x00001496:    d5fc        ..      BPL      0x1492 ; Init_ADC + 26
        0x00001498:    6a41        Aj      LDR      r1,[r0,#0x24]
        0x0000149a:    07c9        ..      LSLS     r1,r1,#31
        0x0000149c:    d0f9        ..      BEQ      0x1492 ; Init_ADC + 26
        0x0000149e:    6881        .h      LDR      r1,[r0,#8]
        0x000014a0:    2201        ."      MOVS     r2,#1
        0x000014a2:    02d2        ..      LSLS     r2,r2,#11
        0x000014a4:    4311        .C      ORRS     r1,r1,r2
        0x000014a6:    6081        .`      STR      r1,[r0,#8]
        0x000014a8:    bd10        ..      POP      {r4,pc}
    $d
        0x000014aa:    0000        ..      DCW    0
        0x000014ac:    400e0000    ...@    DCD    1074659328
    $t
    i.Init_LCD
    Init_LCD
        0x000014b0:    b510        ..      PUSH     {r4,lr}
        0x000014b2:    20ae        .       MOVS     r0,#0xae
        0x000014b4:    f000ff82    ....    BL       lcdWriteCommand ; 0x23bc
        0x000014b8:    2020                MOVS     r0,#0x20
        0x000014ba:    f000ff7f    ....    BL       lcdWriteCommand ; 0x23bc
        0x000014be:    2010        .       MOVS     r0,#0x10
        0x000014c0:    f000ff7c    ..|.    BL       lcdWriteCommand ; 0x23bc
        0x000014c4:    20b0        .       MOVS     r0,#0xb0
        0x000014c6:    f000ff79    ..y.    BL       lcdWriteCommand ; 0x23bc
        0x000014ca:    20c8        .       MOVS     r0,#0xc8
        0x000014cc:    f000ff76    ..v.    BL       lcdWriteCommand ; 0x23bc
        0x000014d0:    2000        .       MOVS     r0,#0
        0x000014d2:    f000ff73    ..s.    BL       lcdWriteCommand ; 0x23bc
        0x000014d6:    2010        .       MOVS     r0,#0x10
        0x000014d8:    f000ff70    ..p.    BL       lcdWriteCommand ; 0x23bc
        0x000014dc:    2040        @       MOVS     r0,#0x40
        0x000014de:    f000ff6d    ..m.    BL       lcdWriteCommand ; 0x23bc
        0x000014e2:    2081        .       MOVS     r0,#0x81
        0x000014e4:    f000ff6a    ..j.    BL       lcdWriteCommand ; 0x23bc
        0x000014e8:    207f        .       MOVS     r0,#0x7f
        0x000014ea:    f000ff67    ..g.    BL       lcdWriteCommand ; 0x23bc
        0x000014ee:    20a1        .       MOVS     r0,#0xa1
        0x000014f0:    f000ff64    ..d.    BL       lcdWriteCommand ; 0x23bc
        0x000014f4:    20a6        .       MOVS     r0,#0xa6
        0x000014f6:    f000ff61    ..a.    BL       lcdWriteCommand ; 0x23bc
        0x000014fa:    20a8        .       MOVS     r0,#0xa8
        0x000014fc:    f000ff5e    ..^.    BL       lcdWriteCommand ; 0x23bc
        0x00001500:    203f        ?       MOVS     r0,#0x3f
        0x00001502:    f000ff5b    ..[.    BL       lcdWriteCommand ; 0x23bc
        0x00001506:    20a4        .       MOVS     r0,#0xa4
        0x00001508:    f000ff58    ..X.    BL       lcdWriteCommand ; 0x23bc
        0x0000150c:    20d3        .       MOVS     r0,#0xd3
        0x0000150e:    f000ff55    ..U.    BL       lcdWriteCommand ; 0x23bc
        0x00001512:    2000        .       MOVS     r0,#0
        0x00001514:    f000ff52    ..R.    BL       lcdWriteCommand ; 0x23bc
        0x00001518:    20d5        .       MOVS     r0,#0xd5
        0x0000151a:    f000ff4f    ..O.    BL       lcdWriteCommand ; 0x23bc
        0x0000151e:    20f0        .       MOVS     r0,#0xf0
        0x00001520:    f000ff4c    ..L.    BL       lcdWriteCommand ; 0x23bc
        0x00001524:    20d9        .       MOVS     r0,#0xd9
        0x00001526:    f000ff49    ..I.    BL       lcdWriteCommand ; 0x23bc
        0x0000152a:    2022        "       MOVS     r0,#0x22
        0x0000152c:    f000ff46    ..F.    BL       lcdWriteCommand ; 0x23bc
        0x00001530:    20da        .       MOVS     r0,#0xda
        0x00001532:    f000ff43    ..C.    BL       lcdWriteCommand ; 0x23bc
        0x00001536:    2012        .       MOVS     r0,#0x12
        0x00001538:    f000ff40    ..@.    BL       lcdWriteCommand ; 0x23bc
        0x0000153c:    20db        .       MOVS     r0,#0xdb
        0x0000153e:    f000ff3d    ..=.    BL       lcdWriteCommand ; 0x23bc
        0x00001542:    2020                MOVS     r0,#0x20
        0x00001544:    f000ff3a    ..:.    BL       lcdWriteCommand ; 0x23bc
        0x00001548:    208d        .       MOVS     r0,#0x8d
        0x0000154a:    f000ff37    ..7.    BL       lcdWriteCommand ; 0x23bc
        0x0000154e:    2014        .       MOVS     r0,#0x14
        0x00001550:    f000ff34    ..4.    BL       lcdWriteCommand ; 0x23bc
        0x00001554:    20af        .       MOVS     r0,#0xaf
        0x00001556:    f000ff31    ..1.    BL       lcdWriteCommand ; 0x23bc
        0x0000155a:    bd10        ..      POP      {r4,pc}
    i.Init_MPU6050
    Init_MPU6050
        0x0000155c:    b510        ..      PUSH     {r4,lr}
        0x0000155e:    2100        .!      MOVS     r1,#0
        0x00001560:    206b        k       MOVS     r0,#0x6b
        0x00001562:    f000f86f    ..o.    BL       MPU6050_WriteByte ; 0x1644
        0x00001566:    2107        .!      MOVS     r1,#7
        0x00001568:    2019        .       MOVS     r0,#0x19
        0x0000156a:    f000f86b    ..k.    BL       MPU6050_WriteByte ; 0x1644
        0x0000156e:    2106        .!      MOVS     r1,#6
        0x00001570:    201a        .       MOVS     r0,#0x1a
        0x00001572:    f000f867    ..g.    BL       MPU6050_WriteByte ; 0x1644
        0x00001576:    2118        .!      MOVS     r1,#0x18
        0x00001578:    201b        .       MOVS     r0,#0x1b
        0x0000157a:    f000f863    ..c.    BL       MPU6050_WriteByte ; 0x1644
        0x0000157e:    2101        .!      MOVS     r1,#1
        0x00001580:    201c        .       MOVS     r0,#0x1c
        0x00001582:    f000f85f    .._.    BL       MPU6050_WriteByte ; 0x1644
        0x00001586:    bd10        ..      POP      {r4,pc}
    i.Init_PWM
    Init_PWM
        0x00001588:    b510        ..      PUSH     {r4,lr}
        0x0000158a:    2108        .!      MOVS     r1,#8
        0x0000158c:    4801        .H      LDR      r0,[pc,#4] ; [0x1594] = 0x40040000
        0x0000158e:    f000f925    ..%.    BL       PWM_Start ; 0x17dc
        0x00001592:    bd10        ..      POP      {r4,pc}
    $d
        0x00001594:    40040000    ...@    DCD    1074003968
    $t
    i.Init_RGBLED
    Init_RGBLED
        0x00001598:    b510        ..      PUSH     {r4,lr}
        0x0000159a:    2201        ."      MOVS     r2,#1
        0x0000159c:    03d1        ..      LSLS     r1,r2,#15
        0x0000159e:    480d        .H      LDR      r0,[pc,#52] ; [0x15d4] = 0x50004040
        0x000015a0:    f7fffea4    ....    BL       GPIO_SetMode ; 0x12ec
        0x000015a4:    480b        .H      LDR      r0,[pc,#44] ; [0x15d4] = 0x50004040
        0x000015a6:    2201        ."      MOVS     r2,#1
        0x000015a8:    0391        ..      LSLS     r1,r2,#14
        0x000015aa:    3840        @8      SUBS     r0,r0,#0x40
        0x000015ac:    f7fffe9e    ....    BL       GPIO_SetMode ; 0x12ec
        0x000015b0:    4808        .H      LDR      r0,[pc,#32] ; [0x15d4] = 0x50004040
        0x000015b2:    2201        ."      MOVS     r2,#1
        0x000015b4:    0291        ..      LSLS     r1,r2,#10
        0x000015b6:    3080        .0      ADDS     r0,r0,#0x80
        0x000015b8:    f7fffe98    ....    BL       GPIO_SetMode ; 0x12ec
        0x000015bc:    4906        .I      LDR      r1,[pc,#24] ; [0x15d8] = 0x50004240
        0x000015be:    2001        .       MOVS     r0,#1
        0x000015c0:    63c8        .c      STR      r0,[r1,#0x3c]
        0x000015c2:    4a05        .J      LDR      r2,[pc,#20] ; [0x15d8] = 0x50004240
        0x000015c4:    2100        .!      MOVS     r1,#0
        0x000015c6:    3a40        @:      SUBS     r2,r2,#0x40
        0x000015c8:    6391        .c      STR      r1,[r2,#0x38]
        0x000015ca:    4903        .I      LDR      r1,[pc,#12] ; [0x15d8] = 0x50004240
        0x000015cc:    3180        .1      ADDS     r1,r1,#0x80
        0x000015ce:    6288        .b      STR      r0,[r1,#0x28]
        0x000015d0:    bd10        ..      POP      {r4,pc}
    $d
        0x000015d2:    0000        ..      DCW    0
        0x000015d4:    50004040    @@.P    DCD    1342193728
        0x000015d8:    50004240    @B.P    DCD    1342194240
    $t
    i.Init_Timer1
    Init_Timer1
        0x000015dc:    b570        p.      PUSH     {r4-r6,lr}
        0x000015de:    4c0f        .L      LDR      r4,[pc,#60] ; [0x161c] = 0x40010100
        0x000015e0:    2205        ."      MOVS     r2,#5
        0x000015e2:    2110        .!      MOVS     r1,#0x10
        0x000015e4:    4620         F      MOV      r0,r4
        0x000015e6:    f000fa51    ..Q.    BL       TIMER_Open ; 0x1a8c
        0x000015ea:    4d0d        .M      LDR      r5,[pc,#52] ; [0x1620] = 0x40010000
        0x000015ec:    222d        -"      MOVS     r2,#0x2d
        0x000015ee:    2110        .!      MOVS     r1,#0x10
        0x000015f0:    4628        (F      MOV      r0,r5
        0x000015f2:    f000fa4b    ..K.    BL       TIMER_Open ; 0x1a8c
        0x000015f6:    68e1        .h      LDR      r1,[r4,#0xc]
        0x000015f8:    2001        .       MOVS     r0,#1
        0x000015fa:    4301        .C      ORRS     r1,r1,r0
        0x000015fc:    60e1        .`      STR      r1,[r4,#0xc]
        0x000015fe:    4a09        .J      LDR      r2,[pc,#36] ; [0x1624] = 0xe000e100
        0x00001600:    0241        A.      LSLS     r1,r0,#9
        0x00001602:    6011        .`      STR      r1,[r2,#0]
        0x00001604:    6821        !h      LDR      r1,[r4,#0]
        0x00001606:    4301        .C      ORRS     r1,r1,r0
        0x00001608:    6021        !`      STR      r1,[r4,#0]
        0x0000160a:    68e9        .h      LDR      r1,[r5,#0xc]
        0x0000160c:    4301        .C      ORRS     r1,r1,r0
        0x0000160e:    60e9        .`      STR      r1,[r5,#0xc]
        0x00001610:    0201        ..      LSLS     r1,r0,#8
        0x00001612:    6011        .`      STR      r1,[r2,#0]
        0x00001614:    6829        )h      LDR      r1,[r5,#0]
        0x00001616:    4301        .C      ORRS     r1,r1,r0
        0x00001618:    6029        )`      STR      r1,[r5,#0]
        0x0000161a:    bd70        p.      POP      {r4-r6,pc}
    $d
        0x0000161c:    40010100    ...@    DCD    1073807616
        0x00001620:    40010000    ...@    DCD    1073807360
        0x00001624:    e000e100    ....    DCD    3758153984
    $t
    i.MPU6050_ReadByte
    MPU6050_ReadByte
        0x00001628:    b51c        ..      PUSH     {r2-r4,lr}
        0x0000162a:    a901        ..      ADD      r1,sp,#4
        0x0000162c:    4602        .F      MOV      r2,r0
        0x0000162e:    9100        ..      STR      r1,[sp,#0]
        0x00001630:    2301        .#      MOVS     r3,#1
        0x00001632:    21d0        .!      MOVS     r1,#0xd0
        0x00001634:    4802        .H      LDR      r0,[pc,#8] ; [0x1640] = 0x40120000
        0x00001636:    f7fffe88    ....    BL       I2C_readBytes ; 0x134a
        0x0000163a:    4668        hF      MOV      r0,sp
        0x0000163c:    7900        .y      LDRB     r0,[r0,#4]
        0x0000163e:    bd1c        ..      POP      {r2-r4,pc}
    $d
        0x00001640:    40120000    ...@    DCD    1074921472
    $t
    i.MPU6050_WriteByte
    MPU6050_WriteByte
        0x00001644:    b51c        ..      PUSH     {r2-r4,lr}
        0x00001646:    466a        jF      MOV      r2,sp
        0x00001648:    7111        .q      STRB     r1,[r2,#4]
        0x0000164a:    a901        ..      ADD      r1,sp,#4
        0x0000164c:    4602        .F      MOV      r2,r0
        0x0000164e:    9100        ..      STR      r1,[sp,#0]
        0x00001650:    2301        .#      MOVS     r3,#1
        0x00001652:    21d0        .!      MOVS     r1,#0xd0
        0x00001654:    4801        .H      LDR      r0,[pc,#4] ; [0x165c] = 0x40120000
        0x00001656:    f7fffece    ....    BL       I2C_writeBytes ; 0x13f6
        0x0000165a:    bd1c        ..      POP      {r2-r4,pc}
    $d
        0x0000165c:    40120000    ...@    DCD    1074921472
    $t
    i.PWM_ConfigOutputChannel
    PWM_ConfigOutputChannel
        0x00001660:    b5ff        ..      PUSH     {r0-r7,lr}
        0x00001662:    4605        .F      MOV      r5,r0
        0x00001664:    4854        TH      LDR      r0,[pc,#336] ; [0x17b8] = 0x20000000
        0x00001666:    b083        ..      SUB      sp,sp,#0xc
        0x00001668:    6800        .h      LDR      r0,[r0,#0]
        0x0000166a:    4694        .F      MOV      r12,r2
        0x0000166c:    9000        ..      STR      r0,[sp,#0]
        0x0000166e:    4853        SH      LDR      r0,[pc,#332] ; [0x17bc] = 0xffff
        0x00001670:    4a53        SJ      LDR      r2,[pc,#332] ; [0x17c0] = 0x50000200
        0x00001672:    460e        .F      MOV      r6,r1
        0x00001674:    9001        ..      STR      r0,[sp,#4]
        0x00001676:    2401        .$      MOVS     r4,#1
        0x00001678:    6951        Qi      LDR      r1,[r2,#0x14]
        0x0000167a:    27ff        .'      MOVS     r7,#0xff
        0x0000167c:    4630        0F      MOV      r0,r6
        0x0000167e:    2302        .#      MOVS     r3,#2
        0x00001680:    4018        .@      ANDS     r0,r0,r3
        0x00001682:    2330        0#      MOVS     r3,#0x30
        0x00001684:    4083        .@      LSLS     r3,r3,r0
        0x00001686:    4019        .@      ANDS     r1,r1,r3
        0x00001688:    1d00        ..      ADDS     r0,r0,#4
        0x0000168a:    40c1        .@      LSRS     r1,r1,r0
        0x0000168c:    484d        MH      LDR      r0,[pc,#308] ; [0x17c4] = 0xb71b00
        0x0000168e:    d00d        ..      BEQ      0x16ac ; PWM_ConfigOutputChannel + 76
        0x00001690:    2901        .)      CMP      r1,#1
        0x00001692:    d004        ..      BEQ      0x169e ; PWM_ConfigOutputChannel + 62
        0x00001694:    2902        .)      CMP      r1,#2
        0x00001696:    d00a        ..      BEQ      0x16ae ; PWM_ConfigOutputChannel + 78
        0x00001698:    2903        .)      CMP      r1,#3
        0x0000169a:    d108        ..      BNE      0x16ae ; PWM_ConfigOutputChannel + 78
        0x0000169c:    e002        ..      B        0x16a4 ; PWM_ConfigOutputChannel + 68
        0x0000169e:    2001        .       MOVS     r0,#1
        0x000016a0:    03c0        ..      LSLS     r0,r0,#15
        0x000016a2:    e003        ..      B        0x16ac ; PWM_ConfigOutputChannel + 76
        0x000016a4:    6811        .h      LDR      r1,[r2,#0]
        0x000016a6:    04c9        ..      LSLS     r1,r1,#19
        0x000016a8:    d500        ..      BPL      0x16ac ; PWM_ConfigOutputChannel + 76
        0x000016aa:    4847        GH      LDR      r0,[pc,#284] ; [0x17c8] = 0xf42400
        0x000016ac:    9000        ..      STR      r0,[sp,#0]
        0x000016ae:    4661        aF      MOV      r1,r12
        0x000016b0:    9800        ..      LDR      r0,[sp,#0]
        0x000016b2:    f7fefd31    ..1.    BL       __aeabi_uidiv ; 0x118
        0x000016b6:    9002        ..      STR      r0,[sp,#8]
        0x000016b8:    4621        !F      MOV      r1,r4
        0x000016ba:    f7fefd2d    ..-.    BL       __aeabi_uidiv ; 0x118
        0x000016be:    2101        .!      MOVS     r1,#1
        0x000016c0:    0609        ..      LSLS     r1,r1,#24
        0x000016c2:    4288        .B      CMP      r0,r1
        0x000016c4:    d812        ..      BHI      0x16ec ; PWM_ConfigOutputChannel + 140
        0x000016c6:    493d        =I      LDR      r1,[pc,#244] ; [0x17bc] = 0xffff
        0x000016c8:    1841        A.      ADDS     r1,r0,r1
        0x000016ca:    0209        ..      LSLS     r1,r1,#8
        0x000016cc:    0e0f        ..      LSRS     r7,r1,#24
        0x000016ce:    2f03        ./      CMP      r7,#3
        0x000016d0:    d200        ..      BCS      0x16d4 ; PWM_ConfigOutputChannel + 116
        0x000016d2:    2702        .'      MOVS     r7,#2
        0x000016d4:    4639        9F      MOV      r1,r7
        0x000016d6:    f7fefd1f    ....    BL       __aeabi_uidiv ; 0x118
        0x000016da:    2101        .!      MOVS     r1,#1
        0x000016dc:    0409        ..      LSLS     r1,r1,#16
        0x000016de:    4288        .B      CMP      r0,r1
        0x000016e0:    d804        ..      BHI      0x16ec ; PWM_ConfigOutputChannel + 140
        0x000016e2:    2801        .(      CMP      r0,#1
        0x000016e4:    d000        ..      BEQ      0x16e8 ; PWM_ConfigOutputChannel + 136
        0x000016e6:    b280        ..      UXTH     r0,r0
        0x000016e8:    9001        ..      STR      r0,[sp,#4]
        0x000016ea:    e005        ..      B        0x16f8 ; PWM_ConfigOutputChannel + 152
        0x000016ec:    0660        `.      LSLS     r0,r4,#25
        0x000016ee:    0e04        ..      LSRS     r4,r0,#24
        0x000016f0:    2c11        .,      CMP      r4,#0x11
        0x000016f2:    d201        ..      BCS      0x16f8 ; PWM_ConfigOutputChannel + 152
        0x000016f4:    9802        ..      LDR      r0,[sp,#8]
        0x000016f6:    e7df        ..      B        0x16b8 ; PWM_ConfigOutputChannel + 88
        0x000016f8:    4639        9F      MOV      r1,r7
        0x000016fa:    9801        ..      LDR      r0,[sp,#4]
        0x000016fc:    4361        aC      MULS     r1,r4,r1
        0x000016fe:    4341        AC      MULS     r1,r0,r1
        0x00001700:    9800        ..      LDR      r0,[sp,#0]
        0x00001702:    f7fefd09    ....    BL       __aeabi_uidiv ; 0x118
        0x00001706:    9000        ..      STR      r0,[sp,#0]
        0x00001708:    9801        ..      LDR      r0,[sp,#4]
        0x0000170a:    1e7f        ..      SUBS     r7,r7,#1
        0x0000170c:    1e40        @.      SUBS     r0,r0,#1
        0x0000170e:    b2fa        ..      UXTB     r2,r7
        0x00001710:    b287        ..      UXTH     r7,r0
        0x00001712:    2c01        .,      CMP      r4,#1
        0x00001714:    d046        F.      BEQ      0x17a4 ; PWM_ConfigOutputChannel + 324
        0x00001716:    2c02        .,      CMP      r4,#2
        0x00001718:    d046        F.      BEQ      0x17a8 ; PWM_ConfigOutputChannel + 328
        0x0000171a:    2c04        .,      CMP      r4,#4
        0x0000171c:    d046        F.      BEQ      0x17ac ; PWM_ConfigOutputChannel + 332
        0x0000171e:    2c08        .,      CMP      r4,#8
        0x00001720:    d046        F.      BEQ      0x17b0 ; PWM_ConfigOutputChannel + 336
        0x00001722:    2003        .       MOVS     r0,#3
        0x00001724:    6929        )i      LDR      r1,[r5,#0x10]
        0x00001726:    05c9        ..      LSLS     r1,r1,#23
        0x00001728:    d4fc        ..      BMI      0x1724 ; PWM_ConfigOutputChannel + 196
        0x0000172a:    682b        +h      LDR      r3,[r5,#0]
        0x0000172c:    0871        q.      LSRS     r1,r6,#1
        0x0000172e:    00c9        ..      LSLS     r1,r1,#3
        0x00001730:    24ff        .$      MOVS     r4,#0xff
        0x00001732:    408c        .@      LSLS     r4,r4,r1
        0x00001734:    43a3        .C      BICS     r3,r3,r4
        0x00001736:    408a        .@      LSLS     r2,r2,r1
        0x00001738:    4313        .C      ORRS     r3,r3,r2
        0x0000173a:    602b        +`      STR      r3,[r5,#0]
        0x0000173c:    686a        jh      LDR      r2,[r5,#4]
        0x0000173e:    00b1        ..      LSLS     r1,r6,#2
        0x00001740:    2307        .#      MOVS     r3,#7
        0x00001742:    408b        .@      LSLS     r3,r3,r1
        0x00001744:    439a        .C      BICS     r2,r2,r3
        0x00001746:    4088        .@      LSLS     r0,r0,r1
        0x00001748:    4302        .C      ORRS     r2,r2,r0
        0x0000174a:    606a        j`      STR      r2,[r5,#4]
        0x0000174c:    68a8        .h      LDR      r0,[r5,#8]
        0x0000174e:    00f2        ..      LSLS     r2,r6,#3
        0x00001750:    2108        .!      MOVS     r1,#8
        0x00001752:    4091        .@      LSLS     r1,r1,r2
        0x00001754:    4308        .C      ORRS     r0,r0,r1
        0x00001756:    60a8        .`      STR      r0,[r5,#8]
        0x00001758:    2210        ."      MOVS     r2,#0x10
        0x0000175a:    40b2        .@      LSLS     r2,r2,r6
        0x0000175c:    6929        )i      LDR      r1,[r5,#0x10]
        0x0000175e:    4610        .F      MOV      r0,r2
        0x00001760:    4388        .C      BICS     r0,r0,r1
        0x00001762:    d0fb        ..      BEQ      0x175c ; PWM_ConfigOutputChannel + 252
        0x00001764:    210c        .!      MOVS     r1,#0xc
        0x00001766:    434e        NC      MULS     r6,r1,r6
        0x00001768:    9806        ..      LDR      r0,[sp,#0x18]
        0x0000176a:    1974        t.      ADDS     r4,r6,r5
        0x0000176c:    2800        .(      CMP      r0,#0
        0x0000176e:    69e0        .i      LDR      r0,[r4,#0x1c]
        0x00001770:    d020         .      BEQ      0x17b4 ; PWM_ConfigOutputChannel + 340
        0x00001772:    b280        ..      UXTH     r0,r0
        0x00001774:    61e0        .a      STR      r0,[r4,#0x1c]
        0x00001776:    9806        ..      LDR      r0,[sp,#0x18]
        0x00001778:    1c79        y.      ADDS     r1,r7,#1
        0x0000177a:    4348        HC      MULS     r0,r1,r0
        0x0000177c:    2164        d!      MOVS     r1,#0x64
        0x0000177e:    f7fefccb    ....    BL       __aeabi_uidiv ; 0x118
        0x00001782:    0401        ..      LSLS     r1,r0,#16
        0x00001784:    2001        .       MOVS     r0,#1
        0x00001786:    0400        ..      LSLS     r0,r0,#16
        0x00001788:    1a08        ..      SUBS     r0,r1,r0
        0x0000178a:    69e1        .i      LDR      r1,[r4,#0x1c]
        0x0000178c:    4308        .C      ORRS     r0,r0,r1
        0x0000178e:    61e0        .a      STR      r0,[r4,#0x1c]
        0x00001790:    69e0        .i      LDR      r0,[r4,#0x1c]
        0x00001792:    0c00        ..      LSRS     r0,r0,#16
        0x00001794:    0400        ..      LSLS     r0,r0,#16
        0x00001796:    61e0        .a      STR      r0,[r4,#0x1c]
        0x00001798:    69e0        .i      LDR      r0,[r4,#0x1c]
        0x0000179a:    4338        8C      ORRS     r0,r0,r7
        0x0000179c:    61e0        .a      STR      r0,[r4,#0x1c]
        0x0000179e:    9800        ..      LDR      r0,[sp,#0]
        0x000017a0:    b007        ..      ADD      sp,sp,#0x1c
        0x000017a2:    bdf0        ..      POP      {r4-r7,pc}
        0x000017a4:    2004        .       MOVS     r0,#4
        0x000017a6:    e7bd        ..      B        0x1724 ; PWM_ConfigOutputChannel + 196
        0x000017a8:    2000        .       MOVS     r0,#0
        0x000017aa:    e7bb        ..      B        0x1724 ; PWM_ConfigOutputChannel + 196
        0x000017ac:    2001        .       MOVS     r0,#1
        0x000017ae:    e7b9        ..      B        0x1724 ; PWM_ConfigOutputChannel + 196
        0x000017b0:    2002        .       MOVS     r0,#2
        0x000017b2:    e7b7        ..      B        0x1724 ; PWM_ConfigOutputChannel + 196
        0x000017b4:    b280        ..      UXTH     r0,r0
        0x000017b6:    e7ea        ..      B        0x178e ; PWM_ConfigOutputChannel + 302
    $d
        0x000017b8:    20000000    ...     DCD    536870912
        0x000017bc:    0000ffff    ....    DCD    65535
        0x000017c0:    50000200    ...P    DCD    1342177792
        0x000017c4:    00b71b00    ....    DCD    12000000
        0x000017c8:    00f42400    .$..    DCD    16000000
    $t
    i.PWM_DisableOutput
    PWM_DisableOutput
        0x000017cc:    6942        Bi      LDR      r2,[r0,#0x14]
        0x000017ce:    438a        .C      BICS     r2,r2,r1
        0x000017d0:    6142        Ba      STR      r2,[r0,#0x14]
        0x000017d2:    4770        pG      BX       lr
    i.PWM_EnableOutput
    PWM_EnableOutput
        0x000017d4:    6942        Bi      LDR      r2,[r0,#0x14]
        0x000017d6:    430a        .C      ORRS     r2,r2,r1
        0x000017d8:    6142        Ba      STR      r2,[r0,#0x14]
        0x000017da:    4770        pG      BX       lr
    i.PWM_Start
    PWM_Start
        0x000017dc:    b570        p.      PUSH     {r4-r6,lr}
        0x000017de:    2300        .#      MOVS     r3,#0
        0x000017e0:    461a        .F      MOV      r2,r3
        0x000017e2:    2601        .&      MOVS     r6,#1
        0x000017e4:    4635        5F      MOV      r5,r6
        0x000017e6:    4095        .@      LSLS     r5,r5,r2
        0x000017e8:    4634        4F      MOV      r4,r6
        0x000017ea:    420d        .B      TST      r5,r1
        0x000017ec:    d002        ..      BEQ      0x17f4 ; PWM_Start + 24
        0x000017ee:    00d5        ..      LSLS     r5,r2,#3
        0x000017f0:    40ac        .@      LSLS     r4,r4,r5
        0x000017f2:    4323        #C      ORRS     r3,r3,r4
        0x000017f4:    1c52        R.      ADDS     r2,r2,#1
        0x000017f6:    b2d2        ..      UXTB     r2,r2
        0x000017f8:    2a04        .*      CMP      r2,#4
        0x000017fa:    d3f3        ..      BCC      0x17e4 ; PWM_Start + 8
        0x000017fc:    6881        .h      LDR      r1,[r0,#8]
        0x000017fe:    4319        .C      ORRS     r1,r1,r3
        0x00001800:    6081        .`      STR      r1,[r0,#8]
        0x00001802:    bd70        p.      POP      {r4-r6,pc}
    i.Read_MPU6050_AccX
    Read_MPU6050_AccX
        0x00001804:    b510        ..      PUSH     {r4,lr}
        0x00001806:    203c        <       MOVS     r0,#0x3c
        0x00001808:    f7ffff0e    ....    BL       MPU6050_ReadByte ; 0x1628
        0x0000180c:    4604        .F      MOV      r4,r0
        0x0000180e:    203b        ;       MOVS     r0,#0x3b
        0x00001810:    f7ffff0a    ....    BL       MPU6050_ReadByte ; 0x1628
        0x00001814:    0200        ..      LSLS     r0,r0,#8
        0x00001816:    4320         C      ORRS     r0,r0,r4
        0x00001818:    b200        ..      SXTH     r0,r0
        0x0000181a:    bd10        ..      POP      {r4,pc}
    i.Read_MPU6050_AccY
    Read_MPU6050_AccY
        0x0000181c:    b510        ..      PUSH     {r4,lr}
        0x0000181e:    203e        >       MOVS     r0,#0x3e
        0x00001820:    f7ffff02    ....    BL       MPU6050_ReadByte ; 0x1628
        0x00001824:    4604        .F      MOV      r4,r0
        0x00001826:    203d        =       MOVS     r0,#0x3d
        0x00001828:    f7fffefe    ....    BL       MPU6050_ReadByte ; 0x1628
        0x0000182c:    0200        ..      LSLS     r0,r0,#8
        0x0000182e:    4320         C      ORRS     r0,r0,r4
        0x00001830:    b200        ..      SXTH     r0,r0
        0x00001832:    bd10        ..      POP      {r4,pc}
    i.Read_MPU6050_AccZ
    Read_MPU6050_AccZ
        0x00001834:    b510        ..      PUSH     {r4,lr}
        0x00001836:    2040        @       MOVS     r0,#0x40
        0x00001838:    f7fffef6    ....    BL       MPU6050_ReadByte ; 0x1628
        0x0000183c:    4604        .F      MOV      r4,r0
        0x0000183e:    203f        ?       MOVS     r0,#0x3f
        0x00001840:    f7fffef2    ....    BL       MPU6050_ReadByte ; 0x1628
        0x00001844:    0200        ..      LSLS     r0,r0,#8
        0x00001846:    4320         C      ORRS     r0,r0,r4
        0x00001848:    b200        ..      SXTH     r0,r0
        0x0000184a:    bd10        ..      POP      {r4,pc}
    i.SYS_Init
    SYS_Init
        0x0000184c:    b570        p.      PUSH     {r4-r6,lr}
        0x0000184e:    2059        Y       MOVS     r0,#0x59
        0x00001850:    2116        .!      MOVS     r1,#0x16
        0x00001852:    4c32        2L      LDR      r4,[pc,#200] ; [0x191c] = 0x50000100
        0x00001854:    2288        ."      MOVS     r2,#0x88
        0x00001856:    e002        ..      B        0x185e ; SYS_Init + 18
        0x00001858:    6020         `      STR      r0,[r4,#0]
        0x0000185a:    6021        !`      STR      r1,[r4,#0]
        0x0000185c:    6022        "`      STR      r2,[r4,#0]
        0x0000185e:    6823        #h      LDR      r3,[r4,#0]
        0x00001860:    2b01        .+      CMP      r3,#1
        0x00001862:    d1f9        ..      BNE      0x1858 ; SYS_Init + 12
        0x00001864:    2006        .       MOVS     r0,#6
        0x00001866:    f7fff85d    ..].    BL       CLK_EnableXtalRC ; 0x924
        0x0000186a:    2012        .       MOVS     r0,#0x12
        0x0000186c:    f7fff90a    ....    BL       CLK_WaitClockReady ; 0xa84
        0x00001870:    482b        +H      LDR      r0,[pc,#172] ; [0x1920] = 0x1e84800
        0x00001872:    f7fff8a1    ....    BL       CLK_SetCoreClock ; 0x9b8
        0x00001876:    4d2b        +M      LDR      r5,[pc,#172] ; [0x1924] = 0xae843d02
        0x00001878:    4628        (F      MOV      r0,r5
        0x0000187a:    f7fefff3    ....    BL       CLK_EnableModuleClock ; 0x864
        0x0000187e:    22ff        ."      MOVS     r2,#0xff
        0x00001880:    3201        .2      ADDS     r2,#1
        0x00001882:    0051        Q.      LSLS     r1,r2,#1
        0x00001884:    4628        (F      MOV      r0,r5
        0x00001886:    f7fff8c3    ....    BL       CLK_SetModuleClock ; 0xa10
        0x0000188a:    4d27        'M      LDR      r5,[pc,#156] ; [0x1928] = 0xaec43d83
        0x0000188c:    4628        (F      MOV      r0,r5
        0x0000188e:    f7feffe9    ....    BL       CLK_EnableModuleClock ; 0x864
        0x00001892:    2101        .!      MOVS     r1,#1
        0x00001894:    2200        ."      MOVS     r2,#0
        0x00001896:    0389        ..      LSLS     r1,r1,#14
        0x00001898:    4628        (F      MOV      r0,r5
        0x0000189a:    f7fff8b9    ....    BL       CLK_SetModuleClock ; 0xa10
        0x0000189e:    4d23        #M      LDR      r5,[pc,#140] ; [0x192c] = 0xaf33fe1c
        0x000018a0:    4628        (F      MOV      r0,r5
        0x000018a2:    f7feffdf    ....    BL       CLK_EnableModuleClock ; 0x864
        0x000018a6:    2103        .!      MOVS     r1,#3
        0x000018a8:    2200        ."      MOVS     r2,#0
        0x000018aa:    04c9        ..      LSLS     r1,r1,#19
        0x000018ac:    4628        (F      MOV      r0,r5
        0x000018ae:    f7fff8af    ....    BL       CLK_SetModuleClock ; 0xa10
        0x000018b2:    4d1f        .M      LDR      r5,[pc,#124] ; [0x1930] = 0x80000009
        0x000018b4:    4628        (F      MOV      r0,r5
        0x000018b6:    f7feffd5    ....    BL       CLK_EnableModuleClock ; 0x864
        0x000018ba:    2200        ."      MOVS     r2,#0
        0x000018bc:    4611        .F      MOV      r1,r2
        0x000018be:    4628        (F      MOV      r0,r5
        0x000018c0:    f7fff8a6    ....    BL       CLK_SetModuleClock ; 0xa10
        0x000018c4:    481b        .H      LDR      r0,[pc,#108] ; [0x1934] = 0xa6400014
        0x000018c6:    f7feffcd    ....    BL       CLK_EnableModuleClock ; 0x864
        0x000018ca:    481b        .H      LDR      r0,[pc,#108] ; [0x1938] = 0xa6600015
        0x000018cc:    f7feffca    ....    BL       CLK_EnableModuleClock ; 0x864
        0x000018d0:    2005        .       MOVS     r0,#5
        0x000018d2:    0700        ..      LSLS     r0,r0,#28
        0x000018d4:    6b01        .k      LDR      r1,[r0,#0x30]
        0x000018d6:    220f        ."      MOVS     r2,#0xf
        0x000018d8:    0412        ..      LSLS     r2,r2,#16
        0x000018da:    4391        .C      BICS     r1,r1,r2
        0x000018dc:    0baa        ..      LSRS     r2,r5,#14
        0x000018de:    1889        ..      ADDS     r1,r1,r2
        0x000018e0:    6301        .c      STR      r1,[r0,#0x30]
        0x000018e2:    4816        .H      LDR      r0,[pc,#88] ; [0x193c] = 0x50004000
        0x000018e4:    6841        Ah      LDR      r1,[r0,#4]
        0x000018e6:    0182        ..      LSLS     r2,r0,#6
        0x000018e8:    4311        .C      ORRS     r1,r1,r2
        0x000018ea:    6041        A`      STR      r1,[r0,#4]
        0x000018ec:    480b        .H      LDR      r0,[pc,#44] ; [0x191c] = 0x50000100
        0x000018ee:    38c0        .8      SUBS     r0,r0,#0xc0
        0x000018f0:    6841        Ah      LDR      r1,[r0,#4]
        0x000018f2:    220f        ."      MOVS     r2,#0xf
        0x000018f4:    0212        ..      LSLS     r2,r2,#8
        0x000018f6:    4391        .C      BICS     r1,r1,r2
        0x000018f8:    1502        ..      ASRS     r2,r0,#20
        0x000018fa:    1889        ..      ADDS     r1,r1,r2
        0x000018fc:    6041        A`      STR      r1,[r0,#4]
        0x000018fe:    6841        Ah      LDR      r1,[r0,#4]
        0x00001900:    220f        ."      MOVS     r2,#0xf
        0x00001902:    0312        ..      LSLS     r2,r2,#12
        0x00001904:    4391        .C      BICS     r1,r1,r2
        0x00001906:    1402        ..      ASRS     r2,r0,#16
        0x00001908:    1889        ..      ADDS     r1,r1,r2
        0x0000190a:    6041        A`      STR      r1,[r0,#4]
        0x0000190c:    68c1        .h      LDR      r1,[r0,#0xc]
        0x0000190e:    22f0        ."      MOVS     r2,#0xf0
        0x00001910:    4391        .C      BICS     r1,r1,r2
        0x00001912:    3130        01      ADDS     r1,r1,#0x30
        0x00001914:    60c1        .`      STR      r1,[r0,#0xc]
        0x00001916:    2000        .       MOVS     r0,#0
        0x00001918:    6020         `      STR      r0,[r4,#0]
        0x0000191a:    bd70        p.      POP      {r4-r6,pc}
    $d
        0x0000191c:    50000100    ...P    DCD    1342177536
        0x00001920:    01e84800    .H..    DCD    32000000
        0x00001924:    ae843d02    .=..    DCD    2927901954
        0x00001928:    aec43d83    .=..    DCD    2932096387
        0x0000192c:    af33fe1c    ..3.    DCD    2939420188
        0x00001930:    80000009    ....    DCD    2147483657
        0x00001934:    a6400014    ..@.    DCD    2789212180
        0x00001938:    a6600015    ..`.    DCD    2791309333
        0x0000193c:    50004000    .@.P    DCD    1342193664
    $t
    i.SysGet_HCLKFreq
    SysGet_HCLKFreq
        0x00001940:    b510        ..      PUSH     {r4,lr}
        0x00001942:    4c0f        .L      LDR      r4,[pc,#60] ; [0x1980] = 0x50000200
        0x00001944:    6920         i      LDR      r0,[r4,#0x10]
        0x00001946:    0741        A.      LSLS     r1,r0,#29
        0x00001948:    480e        .H      LDR      r0,[pc,#56] ; [0x1984] = 0xb71b00
        0x0000194a:    0f49        I.      LSRS     r1,r1,#29
        0x0000194c:    d009        ..      BEQ      0x1962 ; SysGet_HCLKFreq + 34
        0x0000194e:    2901        .)      CMP      r1,#1
        0x00001950:    d00e        ..      BEQ      0x1970 ; SysGet_HCLKFreq + 48
        0x00001952:    2902        .)      CMP      r1,#2
        0x00001954:    d00f        ..      BEQ      0x1976 ; SysGet_HCLKFreq + 54
        0x00001956:    2903        .)      CMP      r1,#3
        0x00001958:    d010        ..      BEQ      0x197c ; SysGet_HCLKFreq + 60
        0x0000195a:    6821        !h      LDR      r1,[r4,#0]
        0x0000195c:    04c9        ..      LSLS     r1,r1,#19
        0x0000195e:    d500        ..      BPL      0x1962 ; SysGet_HCLKFreq + 34
        0x00001960:    4809        .H      LDR      r0,[pc,#36] ; [0x1988] = 0xf42400
        0x00001962:    69e1        .i      LDR      r1,[r4,#0x1c]
        0x00001964:    0709        ..      LSLS     r1,r1,#28
        0x00001966:    0f09        ..      LSRS     r1,r1,#28
        0x00001968:    1c49        I.      ADDS     r1,r1,#1
        0x0000196a:    f7fefbd5    ....    BL       __aeabi_uidiv ; 0x118
        0x0000196e:    bd10        ..      POP      {r4,pc}
        0x00001970:    2001        .       MOVS     r0,#1
        0x00001972:    03c0        ..      LSLS     r0,r0,#15
        0x00001974:    e7f5        ..      B        0x1962 ; SysGet_HCLKFreq + 34
        0x00001976:    f000f80b    ....    BL       SysGet_PLLClockFreq ; 0x1990
        0x0000197a:    e7f2        ..      B        0x1962 ; SysGet_HCLKFreq + 34
        0x0000197c:    4803        .H      LDR      r0,[pc,#12] ; [0x198c] = 0x2710
        0x0000197e:    e7f0        ..      B        0x1962 ; SysGet_HCLKFreq + 34
    $d
        0x00001980:    50000200    ...P    DCD    1342177792
        0x00001984:    00b71b00    ....    DCD    12000000
        0x00001988:    00f42400    .$..    DCD    16000000
        0x0000198c:    00002710    .'..    DCD    10000
    $t
    i.SysGet_PLLClockFreq
    SysGet_PLLClockFreq
        0x00001990:    b510        ..      PUSH     {r4,lr}
        0x00001992:    490b        .I      LDR      r1,[pc,#44] ; [0x19c0] = 0x50000200
        0x00001994:    6a4a        Jj      LDR      r2,[r1,#0x24]
        0x00001996:    03d0        ..      LSLS     r0,r2,#15
        0x00001998:    d501        ..      BPL      0x199e ; SysGet_PLLClockFreq + 14
        0x0000199a:    2000        .       MOVS     r0,#0
        0x0000199c:    bd10        ..      POP      {r4,pc}
        0x0000199e:    4809        .H      LDR      r0,[pc,#36] ; [0x19c4] = 0xb71b00
        0x000019a0:    0393        ..      LSLS     r3,r2,#14
        0x000019a2:    d503        ..      BPL      0x19ac ; SysGet_PLLClockFreq + 28
        0x000019a4:    6a49        Ij      LDR      r1,[r1,#0x24]
        0x000019a6:    04c9        ..      LSLS     r1,r1,#19
        0x000019a8:    d500        ..      BPL      0x19ac ; SysGet_PLLClockFreq + 28
        0x000019aa:    4807        .H      LDR      r0,[pc,#28] ; [0x19c8] = 0xf42400
        0x000019ac:    0511        ..      LSLS     r1,r2,#20
        0x000019ae:    0692        ..      LSLS     r2,r2,#26
        0x000019b0:    0f09        ..      LSRS     r1,r1,#28
        0x000019b2:    0e92        ..      LSRS     r2,r2,#26
        0x000019b4:    4350        PC      MULS     r0,r2,r0
        0x000019b6:    1c49        I.      ADDS     r1,r1,#1
        0x000019b8:    f7fefbae    ....    BL       __aeabi_uidiv ; 0x118
        0x000019bc:    bd10        ..      POP      {r4,pc}
    $d
        0x000019be:    0000        ..      DCW    0
        0x000019c0:    50000200    ...P    DCD    1342177792
        0x000019c4:    00b71b00    ....    DCD    12000000
        0x000019c8:    00f42400    .$..    DCD    16000000
    $t
    i.SystemCoreClockUpdate
    SystemCoreClockUpdate
        0x000019cc:    b510        ..      PUSH     {r4,lr}
        0x000019ce:    f7ffffb7    ....    BL       SysGet_HCLKFreq ; 0x1940
        0x000019d2:    4c04        .L      LDR      r4,[pc,#16] ; [0x19e4] = 0x20000000
        0x000019d4:    4904        .I      LDR      r1,[pc,#16] ; [0x19e8] = 0xf4240
        0x000019d6:    6020         `      STR      r0,[r4,#0]
        0x000019d8:    104a        J.      ASRS     r2,r1,#1
        0x000019da:    1880        ..      ADDS     r0,r0,r2
        0x000019dc:    f7fefb9c    ....    BL       __aeabi_uidiv ; 0x118
        0x000019e0:    6060        ``      STR      r0,[r4,#4]
        0x000019e2:    bd10        ..      POP      {r4,pc}
    $d
        0x000019e4:    20000000    ...     DCD    536870912
        0x000019e8:    000f4240    @B..    DCD    1000000
    $t
    i.TIMER_GetModuleClock
    TIMER_GetModuleClock
        0x000019ec:    b51f        ..      PUSH     {r0-r4,lr}
        0x000019ee:    4920         I      LDR      r1,[pc,#128] ; [0x1a70] = 0x3110
        0x000019f0:    c91e        ..      LDM      r1,{r1-r4}
        0x000019f2:    9403        ..      STR      r4,[sp,#0xc]
        0x000019f4:    466c        lF      MOV      r4,sp
        0x000019f6:    c40e        ..      STM      r4!,{r1-r3}
        0x000019f8:    4a1e        .J      LDR      r2,[pc,#120] ; [0x1a74] = 0x40010000
        0x000019fa:    491f        .I      LDR      r1,[pc,#124] ; [0x1a78] = 0x50000200
        0x000019fc:    4290        .B      CMP      r0,r2
        0x000019fe:    d105        ..      BNE      0x1a0c ; TIMER_GetModuleClock + 32
        0x00001a00:    6948        Hi      LDR      r0,[r1,#0x14]
        0x00001a02:    6a0a        .j      LDR      r2,[r1,#0x20]
        0x00001a04:    0540        @.      LSLS     r0,r0,#21
        0x00001a06:    0f40        @.      LSRS     r0,r0,#29
        0x00001a08:    0a12        ..      LSRS     r2,r2,#8
        0x00001a0a:    e016        ..      B        0x1a3a ; TIMER_GetModuleClock + 78
        0x00001a0c:    4a1b        .J      LDR      r2,[pc,#108] ; [0x1a7c] = 0x40010100
        0x00001a0e:    4290        .B      CMP      r0,r2
        0x00001a10:    d106        ..      BNE      0x1a20 ; TIMER_GetModuleClock + 52
        0x00001a12:    6948        Hi      LDR      r0,[r1,#0x14]
        0x00001a14:    6a0a        .j      LDR      r2,[r1,#0x20]
        0x00001a16:    0440        @.      LSLS     r0,r0,#17
        0x00001a18:    0f40        @.      LSRS     r0,r0,#29
        0x00001a1a:    0412        ..      LSLS     r2,r2,#16
        0x00001a1c:    0f14        ..      LSRS     r4,r2,#28
        0x00001a1e:    e00e        ..      B        0x1a3e ; TIMER_GetModuleClock + 82
        0x00001a20:    4a17        .J      LDR      r2,[pc,#92] ; [0x1a80] = 0x40110000
        0x00001a22:    4290        .B      CMP      r0,r2
        0x00001a24:    6988        .i      LDR      r0,[r1,#0x18]
        0x00001a26:    d104        ..      BNE      0x1a32 ; TIMER_GetModuleClock + 70
        0x00001a28:    0540        @.      LSLS     r0,r0,#21
        0x00001a2a:    6a0a        .j      LDR      r2,[r1,#0x20]
        0x00001a2c:    0f40        @.      LSRS     r0,r0,#29
        0x00001a2e:    0c12        ..      LSRS     r2,r2,#16
        0x00001a30:    e003        ..      B        0x1a3a ; TIMER_GetModuleClock + 78
        0x00001a32:    0440        @.      LSLS     r0,r0,#17
        0x00001a34:    6a0a        .j      LDR      r2,[r1,#0x20]
        0x00001a36:    0f40        @.      LSRS     r0,r0,#29
        0x00001a38:    0d12        ..      LSRS     r2,r2,#20
        0x00001a3a:    0714        ..      LSLS     r4,r2,#28
        0x00001a3c:    0f24        $.      LSRS     r4,r4,#28
        0x00001a3e:    1c64        d.      ADDS     r4,r4,#1
        0x00001a40:    2804        .(      CMP      r0,#4
        0x00001a42:    d203        ..      BCS      0x1a4c ; TIMER_GetModuleClock + 96
        0x00001a44:    0081        ..      LSLS     r1,r0,#2
        0x00001a46:    4668        hF      MOV      r0,sp
        0x00001a48:    5840        @X      LDR      r0,[r0,r1]
        0x00001a4a:    e003        ..      B        0x1a54 ; TIMER_GetModuleClock + 104
        0x00001a4c:    2804        .(      CMP      r0,#4
        0x00001a4e:    d003        ..      BEQ      0x1a58 ; TIMER_GetModuleClock + 108
        0x00001a50:    f7feff70    ..p.    BL       CLK_GetHCLKFreq ; 0x934
        0x00001a54:    4621        !F      MOV      r1,r4
        0x00001a56:    e006        ..      B        0x1a66 ; TIMER_GetModuleClock + 122
        0x00001a58:    6808        .h      LDR      r0,[r1,#0]
        0x00001a5a:    4621        !F      MOV      r1,r4
        0x00001a5c:    04c0        ..      LSLS     r0,r0,#19
        0x00001a5e:    d501        ..      BPL      0x1a64 ; TIMER_GetModuleClock + 120
        0x00001a60:    4808        .H      LDR      r0,[pc,#32] ; [0x1a84] = 0xf42400
        0x00001a62:    e000        ..      B        0x1a66 ; TIMER_GetModuleClock + 122
        0x00001a64:    4808        .H      LDR      r0,[pc,#32] ; [0x1a88] = 0xb71b00
        0x00001a66:    f7fefb57    ..W.    BL       __aeabi_uidiv ; 0x118
        0x00001a6a:    b004        ..      ADD      sp,sp,#0x10
        0x00001a6c:    bd10        ..      POP      {r4,pc}
    $d
        0x00001a6e:    0000        ..      DCW    0
        0x00001a70:    00003110    .1..    DCD    12560
        0x00001a74:    40010000    ...@    DCD    1073807360
        0x00001a78:    50000200    ...P    DCD    1342177792
        0x00001a7c:    40010100    ...@    DCD    1073807616
        0x00001a80:    40110000    ...@    DCD    1074855936
        0x00001a84:    00f42400    .$..    DCD    16000000
        0x00001a88:    00b71b00    ....    DCD    12000000
    $t
    i.TIMER_Open
    TIMER_Open
        0x00001a8c:    b5f7        ..      PUSH     {r0-r2,r4-r7,lr}
        0x00001a8e:    4617        .F      MOV      r7,r2
        0x00001a90:    4606        .F      MOV      r6,r0
        0x00001a92:    f7ffffab    ....    BL       TIMER_GetModuleClock ; 0x19ec
        0x00001a96:    4604        .F      MOV      r4,r0
        0x00001a98:    2500        .%      MOVS     r5,#0
        0x00001a9a:    0840        @.      LSRS     r0,r0,#1
        0x00001a9c:    42b8        .B      CMP      r0,r7
        0x00001a9e:    d201        ..      BCS      0x1aa4 ; TIMER_Open + 24
        0x00001aa0:    2002        .       MOVS     r0,#2
        0x00001aa2:    e008        ..      B        0x1ab6 ; TIMER_Open + 42
        0x00001aa4:    4909        .I      LDR      r1,[pc,#36] ; [0x1acc] = 0xffffff
        0x00001aa6:    428c        .B      CMP      r4,r1
        0x00001aa8:    d901        ..      BLS      0x1aae ; TIMER_Open + 34
        0x00001aaa:    2501        .%      MOVS     r5,#1
        0x00001aac:    4604        .F      MOV      r4,r0
        0x00001aae:    4639        9F      MOV      r1,r7
        0x00001ab0:    4620         F      MOV      r0,r4
        0x00001ab2:    f7fefb31    ..1.    BL       __aeabi_uidiv ; 0x118
        0x00001ab6:    60b0        .`      STR      r0,[r6,#8]
        0x00001ab8:    6075        u`      STR      r5,[r6,#4]
        0x00001aba:    9901        ..      LDR      r1,[sp,#4]
        0x00001abc:    6031        1`      STR      r1,[r6,#0]
        0x00001abe:    1c6d        m.      ADDS     r5,r5,#1
        0x00001ac0:    4368        hC      MULS     r0,r5,r0
        0x00001ac2:    4601        .F      MOV      r1,r0
        0x00001ac4:    4620         F      MOV      r0,r4
        0x00001ac6:    f7fefb27    ..'.    BL       __aeabi_uidiv ; 0x118
        0x00001aca:    bdfe        ..      POP      {r1-r7,pc}
    $d
        0x00001acc:    00ffffff    ....    DCD    16777215
    $t
    i.TMR0_IRQHandler
    TMR0_IRQHandler
        0x00001ad0:    b5f8        ..      PUSH     {r3-r7,lr}
        0x00001ad2:    4d44        DM      LDR      r5,[pc,#272] ; [0x1be4] = 0x20000008
        0x00001ad4:    2104        .!      MOVS     r1,#4
        0x00001ad6:    5e69        i^      LDRSH    r1,[r5,r1]
        0x00001ad8:    2400        .$      MOVS     r4,#0
        0x00001ada:    4843        CH      LDR      r0,[pc,#268] ; [0x1be8] = 0x40040000
        0x00001adc:    2901        .)      CMP      r1,#1
        0x00001ade:    d00e        ..      BEQ      0x1afe ; TMR0_IRQHandler + 46
        0x00001ae0:    2903        .)      CMP      r1,#3
        0x00001ae2:    d00c        ..      BEQ      0x1afe ; TMR0_IRQHandler + 46
        0x00001ae4:    2904        .)      CMP      r1,#4
        0x00001ae6:    d00a        ..      BEQ      0x1afe ; TMR0_IRQHandler + 46
        0x00001ae8:    2906        .)      CMP      r1,#6
        0x00001aea:    d008        ..      BEQ      0x1afe ; TMR0_IRQHandler + 46
        0x00001aec:    2907        .)      CMP      r1,#7
        0x00001aee:    d006        ..      BEQ      0x1afe ; TMR0_IRQHandler + 46
        0x00001af0:    2909        .)      CMP      r1,#9
        0x00001af2:    d004        ..      BEQ      0x1afe ; TMR0_IRQHandler + 46
        0x00001af4:    2910        .)      CMP      r1,#0x10
        0x00001af6:    d002        ..      BEQ      0x1afe ; TMR0_IRQHandler + 46
        0x00001af8:    2912        .)      CMP      r1,#0x12
        0x00001afa:    d03f        ?.      BEQ      0x1b7c ; TMR0_IRQHandler + 172
        0x00001afc:    e044        D.      B        0x1b88 ; TMR0_IRQHandler + 184
        0x00001afe:    8869        i.      LDRH     r1,[r5,#2]
        0x00001b00:    2901        .)      CMP      r1,#1
        0x00001b02:    d141        A.      BNE      0x1b88 ; TMR0_IRQHandler + 184
        0x00001b04:    210c        .!      MOVS     r1,#0xc
        0x00001b06:    5e69        i^      LDRSH    r1,[r5,r1]
        0x00001b08:    69aa        .i      LDR      r2,[r5,#0x18]
        0x00001b0a:    0049        I.      LSLS     r1,r1,#1
        0x00001b0c:    5e52        R^      LDRSH    r2,[r2,r1]
        0x00001b0e:    230a        .#      MOVS     r3,#0xa
        0x00001b10:    2103        .!      MOVS     r1,#3
        0x00001b12:    4606        .F      MOV      r6,r0
        0x00001b14:    f7fffda4    ....    BL       PWM_ConfigOutputChannel ; 0x1660
        0x00001b18:    200c        .       MOVS     r0,#0xc
        0x00001b1a:    5e28        (^      LDRSH    r0,[r5,r0]
        0x00001b1c:    69a9        .i      LDR      r1,[r5,#0x18]
        0x00001b1e:    0040        @.      LSLS     r0,r0,#1
        0x00001b20:    5a08        .Z      LDRH     r0,[r1,r0]
        0x00001b22:    2800        .(      CMP      r0,#0
        0x00001b24:    d004        ..      BEQ      0x1b30 ; TMR0_IRQHandler + 96
        0x00001b26:    2108        .!      MOVS     r1,#8
        0x00001b28:    4630        0F      MOV      r0,r6
        0x00001b2a:    f7fffe53    ..S.    BL       PWM_EnableOutput ; 0x17d4
        0x00001b2e:    e003        ..      B        0x1b38 ; TMR0_IRQHandler + 104
        0x00001b30:    2108        .!      MOVS     r1,#8
        0x00001b32:    4630        0F      MOV      r0,r6
        0x00001b34:    f7fffe4a    ..J.    BL       PWM_DisableOutput ; 0x17cc
        0x00001b38:    482c        ,H      LDR      r0,[pc,#176] ; [0x1bec] = 0xc350
        0x00001b3a:    f7feff91    ....    BL       CLK_SysTickDelay ; 0xa60
        0x00001b3e:    89a8        ..      LDRH     r0,[r5,#0xc]
        0x00001b40:    2104        .!      MOVS     r1,#4
        0x00001b42:    1c40        @.      ADDS     r0,r0,#1
        0x00001b44:    b200        ..      SXTH     r0,r0
        0x00001b46:    81a8        ..      STRH     r0,[r5,#0xc]
        0x00001b48:    5e69        i^      LDRSH    r1,[r5,r1]
        0x00001b4a:    2903        .)      CMP      r1,#3
        0x00001b4c:    d003        ..      BEQ      0x1b56 ; TMR0_IRQHandler + 134
        0x00001b4e:    2906        .)      CMP      r1,#6
        0x00001b50:    d001        ..      BEQ      0x1b56 ; TMR0_IRQHandler + 134
        0x00001b52:    2909        .)      CMP      r1,#9
        0x00001b54:    d106        ..      BNE      0x1b64 ; TMR0_IRQHandler + 148
        0x00001b56:    4a26        &J      LDR      r2,[pc,#152] ; [0x1bf0] = 0x20000ccc
        0x00001b58:    69a9        .i      LDR      r1,[r5,#0x18]
        0x00001b5a:    4291        .B      CMP      r1,r2
        0x00001b5c:    d002        ..      BEQ      0x1b64 ; TMR0_IRQHandler + 148
        0x00001b5e:    2807        .(      CMP      r0,#7
        0x00001b60:    dc02        ..      BGT      0x1b68 ; TMR0_IRQHandler + 152
        0x00001b62:    e007        ..      B        0x1b74 ; TMR0_IRQHandler + 164
        0x00001b64:    282f        /(      CMP      r0,#0x2f
        0x00001b66:    dd05        ..      BLE      0x1b74 ; TMR0_IRQHandler + 164
        0x00001b68:    2108        .!      MOVS     r1,#8
        0x00001b6a:    4630        0F      MOV      r0,r6
        0x00001b6c:    f7fffe2e    ....    BL       PWM_DisableOutput ; 0x17cc
        0x00001b70:    806c        l.      STRH     r4,[r5,#2]
        0x00001b72:    81ac        ..      STRH     r4,[r5,#0xc]
        0x00001b74:    210c        .!      MOVS     r1,#0xc
        0x00001b76:    5e69        i^      LDRSH    r1,[r5,r1]
        0x00001b78:    a01e        ..      ADR      r0,{pc}+0x7c ; 0x1bf4
        0x00001b7a:    e030        0.      B        0x1bde ; TMR0_IRQHandler + 270
        0x00001b7c:    8969        i.      LDRH     r1,[r5,#0xa]
        0x00001b7e:    2901        .)      CMP      r1,#1
        0x00001b80:    d006        ..      BEQ      0x1b90 ; TMR0_IRQHandler + 192
        0x00001b82:    2108        .!      MOVS     r1,#8
        0x00001b84:    f7fffe22    ..".    BL       PWM_DisableOutput ; 0x17cc
        0x00001b88:    491d        .I      LDR      r1,[pc,#116] ; [0x1c00] = 0x40010000
        0x00001b8a:    2001        .       MOVS     r0,#1
        0x00001b8c:    6108        .a      STR      r0,[r1,#0x10]
        0x00001b8e:    bdf8        ..      POP      {r3-r7,pc}
        0x00001b90:    210c        .!      MOVS     r1,#0xc
        0x00001b92:    5e69        i^      LDRSH    r1,[r5,r1]
        0x00001b94:    4e1b        .N      LDR      r6,[pc,#108] ; [0x1c04] = 0x20000e54
        0x00001b96:    0049        I.      LSLS     r1,r1,#1
        0x00001b98:    5e72        r^      LDRSH    r2,[r6,r1]
        0x00001b9a:    230a        .#      MOVS     r3,#0xa
        0x00001b9c:    2103        .!      MOVS     r1,#3
        0x00001b9e:    4607        .F      MOV      r7,r0
        0x00001ba0:    f7fffd5e    ..^.    BL       PWM_ConfigOutputChannel ; 0x1660
        0x00001ba4:    200c        .       MOVS     r0,#0xc
        0x00001ba6:    5e28        (^      LDRSH    r0,[r5,r0]
        0x00001ba8:    0040        @.      LSLS     r0,r0,#1
        0x00001baa:    5a30        0Z      LDRH     r0,[r6,r0]
        0x00001bac:    2800        .(      CMP      r0,#0
        0x00001bae:    d004        ..      BEQ      0x1bba ; TMR0_IRQHandler + 234
        0x00001bb0:    2108        .!      MOVS     r1,#8
        0x00001bb2:    4638        8F      MOV      r0,r7
        0x00001bb4:    f7fffe0e    ....    BL       PWM_EnableOutput ; 0x17d4
        0x00001bb8:    e003        ..      B        0x1bc2 ; TMR0_IRQHandler + 242
        0x00001bba:    2108        .!      MOVS     r1,#8
        0x00001bbc:    4638        8F      MOV      r0,r7
        0x00001bbe:    f7fffe05    ....    BL       PWM_DisableOutput ; 0x17cc
        0x00001bc2:    89a8        ..      LDRH     r0,[r5,#0xc]
        0x00001bc4:    1c40        @.      ADDS     r0,r0,#1
        0x00001bc6:    b200        ..      SXTH     r0,r0
        0x00001bc8:    81a8        ..      STRH     r0,[r5,#0xc]
        0x00001bca:    28c0        .(      CMP      r0,#0xc0
        0x00001bcc:    dd04        ..      BLE      0x1bd8 ; TMR0_IRQHandler + 264
        0x00001bce:    2108        .!      MOVS     r1,#8
        0x00001bd0:    4638        8F      MOV      r0,r7
        0x00001bd2:    f7fffdfb    ....    BL       PWM_DisableOutput ; 0x17cc
        0x00001bd6:    81ac        ..      STRH     r4,[r5,#0xc]
        0x00001bd8:    210c        .!      MOVS     r1,#0xc
        0x00001bda:    5e69        i^      LDRSH    r1,[r5,r1]
        0x00001bdc:    a00a        ..      ADR      r0,{pc}+0x2c ; 0x1c08
        0x00001bde:    f000f85b    ..[.    BL       __0printf$1 ; 0x1c98
        0x00001be2:    e7d1        ..      B        0x1b88 ; TMR0_IRQHandler + 184
    $d
        0x00001be4:    20000008    ...     DCD    536870920
        0x00001be8:    40040000    ...@    DCD    1074003968
        0x00001bec:    0000c350    P...    DCD    50000
        0x00001bf0:    20000ccc    ...     DCD    536874188
        0x00001bf4:    656e6f74    tone    DCD    1701736308
        0x00001bf8:    20642520     %d     DCD    543434016
        0x00001bfc:    0000000a    ....    DCD    10
        0x00001c00:    40010000    ...@    DCD    1073807360
        0x00001c04:    20000e54    T..     DCD    536874580
        0x00001c08:    6973756d    musi    DCD    1769174381
        0x00001c0c:    6f632063    c co    DCD    1868767331
        0x00001c10:    20746e75    unt     DCD    544501365
        0x00001c14:    6425203d    = %d    DCD    1680154685
        0x00001c18:    0000000a    ....    DCD    10
    $t
    i.TMR1_IRQHandler
    TMR1_IRQHandler
        0x00001c1c:    4a1c        .J      LDR      r2,[pc,#112] ; [0x1c90] = 0x20000008
        0x00001c1e:    2004        .       MOVS     r0,#4
        0x00001c20:    5e10        .^      LDRSH    r0,[r2,r0]
        0x00001c22:    2301        .#      MOVS     r3,#1
        0x00001c24:    2801        .(      CMP      r0,#1
        0x00001c26:    d009        ..      BEQ      0x1c3c ; TMR1_IRQHandler + 32
        0x00001c28:    2803        .(      CMP      r0,#3
        0x00001c2a:    d007        ..      BEQ      0x1c3c ; TMR1_IRQHandler + 32
        0x00001c2c:    2804        .(      CMP      r0,#4
        0x00001c2e:    d005        ..      BEQ      0x1c3c ; TMR1_IRQHandler + 32
        0x00001c30:    2806        .(      CMP      r0,#6
        0x00001c32:    d003        ..      BEQ      0x1c3c ; TMR1_IRQHandler + 32
        0x00001c34:    2807        .(      CMP      r0,#7
        0x00001c36:    d001        ..      BEQ      0x1c3c ; TMR1_IRQHandler + 32
        0x00001c38:    2809        .(      CMP      r0,#9
        0x00001c3a:    d125        %.      BNE      0x1c88 ; TMR1_IRQHandler + 108
        0x00001c3c:    8a51        Q.      LDRH     r1,[r2,#0x12]
        0x00001c3e:    1c49        I.      ADDS     r1,r1,#1
        0x00001c40:    b209        ..      SXTH     r1,r1
        0x00001c42:    8251        Q.      STRH     r1,[r2,#0x12]
        0x00001c44:    2950        P)      CMP      r1,#0x50
        0x00001c46:    da03        ..      BGE      0x1c50 ; TMR1_IRQHandler + 52
        0x00001c48:    8a11        ..      LDRH     r1,[r2,#0x10]
        0x00001c4a:    1c49        I.      ADDS     r1,r1,#1
        0x00001c4c:    8211        ..      STRH     r1,[r2,#0x10]
        0x00001c4e:    e00b        ..      B        0x1c68 ; TMR1_IRQHandler + 76
        0x00001c50:    29c8        .)      CMP      r1,#0xc8
        0x00001c52:    dd02        ..      BLE      0x1c5a ; TMR1_IRQHandler + 62
        0x00001c54:    2119        .!      MOVS     r1,#0x19
        0x00001c56:    8011        ..      STRH     r1,[r2,#0]
        0x00001c58:    e005        ..      B        0x1c66 ; TMR1_IRQHandler + 74
        0x00001c5a:    88d1        ..      LDRH     r1,[r2,#6]
        0x00001c5c:    2901        .)      CMP      r1,#1
        0x00001c5e:    d003        ..      BEQ      0x1c68 ; TMR1_IRQHandler + 76
        0x00001c60:    211a        .!      MOVS     r1,#0x1a
        0x00001c62:    8011        ..      STRH     r1,[r2,#0]
        0x00001c64:    80d3        ..      STRH     r3,[r2,#6]
        0x00001c66:    8113        ..      STRH     r3,[r2,#8]
        0x00001c68:    2110        .!      MOVS     r1,#0x10
        0x00001c6a:    5e51        Q^      LDRSH    r1,[r2,r1]
        0x00001c6c:    2964        d)      CMP      r1,#0x64
        0x00001c6e:    dd0b        ..      BLE      0x1c88 ; TMR1_IRQHandler + 108
        0x00001c70:    2807        .(      CMP      r0,#7
        0x00001c72:    d003        ..      BEQ      0x1c7c ; TMR1_IRQHandler + 96
        0x00001c74:    2017        .       MOVS     r0,#0x17
        0x00001c76:    8010        ..      STRH     r0,[r2,#0]
        0x00001c78:    8113        ..      STRH     r3,[r2,#8]
        0x00001c7a:    e005        ..      B        0x1c88 ; TMR1_IRQHandler + 108
        0x00001c7c:    2000        .       MOVS     r0,#0
        0x00001c7e:    8210        ..      STRH     r0,[r2,#0x10]
        0x00001c80:    201b        .       MOVS     r0,#0x1b
        0x00001c82:    8010        ..      STRH     r0,[r2,#0]
        0x00001c84:    2012        .       MOVS     r0,#0x12
        0x00001c86:    8090        ..      STRH     r0,[r2,#4]
        0x00001c88:    4802        .H      LDR      r0,[pc,#8] ; [0x1c94] = 0x40010100
        0x00001c8a:    6103        .a      STR      r3,[r0,#0x10]
        0x00001c8c:    4770        pG      BX       lr
    $d
        0x00001c8e:    0000        ..      DCW    0
        0x00001c90:    20000008    ...     DCD    536870920
        0x00001c94:    40010100    ...@    DCD    1073807616
    $t
    i.__0printf$1
    __0printf$1
    __1printf$1
    __2printf
        0x00001c98:    b40f        ..      PUSH     {r0-r3}
        0x00001c9a:    b510        ..      PUSH     {r4,lr}
        0x00001c9c:    a903        ..      ADD      r1,sp,#0xc
        0x00001c9e:    4b04        .K      LDR      r3,[pc,#16] ; [0x1cb0] = 0x238d
        0x00001ca0:    4a04        .J      LDR      r2,[pc,#16] ; [0x1cb4] = 0x20000fec
        0x00001ca2:    9802        ..      LDR      r0,[sp,#8]
        0x00001ca4:    f000f8e6    ....    BL       _printf_core ; 0x1e74
        0x00001ca8:    bc10        ..      POP      {r4}
        0x00001caa:    bc08        ..      POP      {r3}
        0x00001cac:    b004        ..      ADD      sp,sp,#0x10
        0x00001cae:    4718        .G      BX       r3
    $d
        0x00001cb0:    0000238d    .#..    DCD    9101
        0x00001cb4:    20000fec    ...     DCD    536874988
    $t
    i.__0sprintf$1
    __0sprintf$1
    __1sprintf$1
    __2sprintf
        0x00001cb8:    b40f        ..      PUSH     {r0-r3}
        0x00001cba:    b510        ..      PUSH     {r4,lr}
        0x00001cbc:    a904        ..      ADD      r1,sp,#0x10
        0x00001cbe:    4b07        .K      LDR      r3,[pc,#28] ; [0x1cdc] = 0x1fc5
        0x00001cc0:    aa02        ..      ADD      r2,sp,#8
        0x00001cc2:    9803        ..      LDR      r0,[sp,#0xc]
        0x00001cc4:    f000f8d6    ....    BL       _printf_core ; 0x1e74
        0x00001cc8:    4604        .F      MOV      r4,r0
        0x00001cca:    a902        ..      ADD      r1,sp,#8
        0x00001ccc:    2000        .       MOVS     r0,#0
        0x00001cce:    f000f979    ..y.    BL       _sputc ; 0x1fc4
        0x00001cd2:    4620         F      MOV      r0,r4
        0x00001cd4:    bc10        ..      POP      {r4}
        0x00001cd6:    bc08        ..      POP      {r3}
        0x00001cd8:    b004        ..      ADD      sp,sp,#0x10
        0x00001cda:    4718        .G      BX       r3
    $d
        0x00001cdc:    00001fc5    ....    DCD    8133
    $t
    i.__ARM_clz
    __ARM_clz
        0x00001ce0:    2120         !      MOVS     r1,#0x20
        0x00001ce2:    0c02        ..      LSRS     r2,r0,#16
        0x00001ce4:    d001        ..      BEQ      0x1cea ; __ARM_clz + 10
        0x00001ce6:    2110        .!      MOVS     r1,#0x10
        0x00001ce8:    4610        .F      MOV      r0,r2
        0x00001cea:    0a02        ..      LSRS     r2,r0,#8
        0x00001cec:    d001        ..      BEQ      0x1cf2 ; __ARM_clz + 18
        0x00001cee:    4610        .F      MOV      r0,r2
        0x00001cf0:    3908        .9      SUBS     r1,r1,#8
        0x00001cf2:    0902        ..      LSRS     r2,r0,#4
        0x00001cf4:    d001        ..      BEQ      0x1cfa ; __ARM_clz + 26
        0x00001cf6:    4610        .F      MOV      r0,r2
        0x00001cf8:    1f09        ..      SUBS     r1,r1,#4
        0x00001cfa:    0882        ..      LSRS     r2,r0,#2
        0x00001cfc:    d001        ..      BEQ      0x1d02 ; __ARM_clz + 34
        0x00001cfe:    4610        .F      MOV      r0,r2
        0x00001d00:    1e89        ..      SUBS     r1,r1,#2
        0x00001d02:    0842        B.      LSRS     r2,r0,#1
        0x00001d04:    d001        ..      BEQ      0x1d0a ; __ARM_clz + 42
        0x00001d06:    1e88        ..      SUBS     r0,r1,#2
        0x00001d08:    4770        pG      BX       lr
        0x00001d0a:    1a08        ..      SUBS     r0,r1,r0
        0x00001d0c:    4770        pG      BX       lr
        0x00001d0e:    0000        ..      MOVS     r0,r0
    i.__ARM_fpclassify
    __ARM_fpclassify
        0x00001d10:    0049        I.      LSLS     r1,r1,#1
        0x00001d12:    02ca        ..      LSLS     r2,r1,#11
        0x00001d14:    4302        .C      ORRS     r2,r2,r0
        0x00001d16:    0010        ..      MOVS     r0,r2
        0x00001d18:    d000        ..      BEQ      0x1d1c ; __ARM_fpclassify + 12
        0x00001d1a:    2004        .       MOVS     r0,#4
        0x00001d1c:    0d4a        J.      LSRS     r2,r1,#21
        0x00001d1e:    d001        ..      BEQ      0x1d24 ; __ARM_fpclassify + 20
        0x00001d20:    2201        ."      MOVS     r2,#1
        0x00001d22:    4310        .C      ORRS     r0,r0,r2
        0x00001d24:    4a04        .J      LDR      r2,[pc,#16] ; [0x1d38] = 0x7ff
        0x00001d26:    0d49        I.      LSRS     r1,r1,#21
        0x00001d28:    4291        .B      CMP      r1,r2
        0x00001d2a:    d101        ..      BNE      0x1d30 ; __ARM_fpclassify + 32
        0x00001d2c:    2102        .!      MOVS     r1,#2
        0x00001d2e:    4308        .C      ORRS     r0,r0,r1
        0x00001d30:    2801        .(      CMP      r0,#1
        0x00001d32:    d100        ..      BNE      0x1d36 ; __ARM_fpclassify + 38
        0x00001d34:    2005        .       MOVS     r0,#5
        0x00001d36:    4770        pG      BX       lr
    $d
        0x00001d38:    000007ff    ....    DCD    2047
    $t
    i.__kernel_poly
    __kernel_poly
        0x00001d3c:    b5f8        ..      PUSH     {r3-r7,lr}
        0x00001d3e:    4604        .F      MOV      r4,r0
        0x00001d40:    1e4f        O.      SUBS     r7,r1,#1
        0x00001d42:    00c8        ..      LSLS     r0,r1,#3
        0x00001d44:    3808        .8      SUBS     r0,r0,#8
        0x00001d46:    1821        !.      ADDS     r1,r4,r0
        0x00001d48:    4615        .F      MOV      r5,r2
        0x00001d4a:    461e        .F      MOV      r6,r3
        0x00001d4c:    6808        .h      LDR      r0,[r1,#0]
        0x00001d4e:    6849        Ih      LDR      r1,[r1,#4]
        0x00001d50:    463a        :F      MOV      r2,r7
        0x00001d52:    2306        .#      MOVS     r3,#6
        0x00001d54:    439a        .C      BICS     r2,r2,r3
        0x00001d56:    d010        ..      BEQ      0x1d7a ; __kernel_poly + 62
        0x00001d58:    462a        *F      MOV      r2,r5
        0x00001d5a:    4633        3F      MOV      r3,r6
        0x00001d5c:    f7fefae4    ....    BL       __aeabi_dmul ; 0x328
        0x00001d60:    463a        :F      MOV      r2,r7
        0x00001d62:    00d2        ..      LSLS     r2,r2,#3
        0x00001d64:    3a08        .:      SUBS     r2,r2,#8
        0x00001d66:    18a3        ..      ADDS     r3,r4,r2
        0x00001d68:    681a        .h      LDR      r2,[r3,#0]
        0x00001d6a:    1e7f        ..      SUBS     r7,r7,#1
        0x00001d6c:    685b        [h      LDR      r3,[r3,#4]
        0x00001d6e:    f7fefa29    ..).    BL       __aeabi_dadd ; 0x1c4
        0x00001d72:    2206        ."      MOVS     r2,#6
        0x00001d74:    463b        ;F      MOV      r3,r7
        0x00001d76:    4393        .C      BICS     r3,r3,r2
        0x00001d78:    d1ee        ..      BNE      0x1d58 ; __kernel_poly + 28
        0x00001d7a:    2f02        ./      CMP      r7,#2
        0x00001d7c:    d023        #.      BEQ      0x1dc6 ; __kernel_poly + 138
        0x00001d7e:    2f04        ./      CMP      r7,#4
        0x00001d80:    d011        ..      BEQ      0x1da6 ; __kernel_poly + 106
        0x00001d82:    2f06        ./      CMP      r7,#6
        0x00001d84:    d12f        /.      BNE      0x1de6 ; __kernel_poly + 170
        0x00001d86:    462a        *F      MOV      r2,r5
        0x00001d88:    4633        3F      MOV      r3,r6
        0x00001d8a:    f7fefacd    ....    BL       __aeabi_dmul ; 0x328
        0x00001d8e:    6ae3        .j      LDR      r3,[r4,#0x2c]
        0x00001d90:    6aa2        .j      LDR      r2,[r4,#0x28]
        0x00001d92:    f7fefa17    ....    BL       __aeabi_dadd ; 0x1c4
        0x00001d96:    462a        *F      MOV      r2,r5
        0x00001d98:    4633        3F      MOV      r3,r6
        0x00001d9a:    f7fefac5    ....    BL       __aeabi_dmul ; 0x328
        0x00001d9e:    6a63        cj      LDR      r3,[r4,#0x24]
        0x00001da0:    6a22        "j      LDR      r2,[r4,#0x20]
        0x00001da2:    f7fefa0f    ....    BL       __aeabi_dadd ; 0x1c4
        0x00001da6:    462a        *F      MOV      r2,r5
        0x00001da8:    4633        3F      MOV      r3,r6
        0x00001daa:    f7fefabd    ....    BL       __aeabi_dmul ; 0x328
        0x00001dae:    69e3        .i      LDR      r3,[r4,#0x1c]
        0x00001db0:    69a2        .i      LDR      r2,[r4,#0x18]
        0x00001db2:    f7fefa07    ....    BL       __aeabi_dadd ; 0x1c4
        0x00001db6:    462a        *F      MOV      r2,r5
        0x00001db8:    4633        3F      MOV      r3,r6
        0x00001dba:    f7fefab5    ....    BL       __aeabi_dmul ; 0x328
        0x00001dbe:    6963        ci      LDR      r3,[r4,#0x14]
        0x00001dc0:    6922        "i      LDR      r2,[r4,#0x10]
        0x00001dc2:    f7fef9ff    ....    BL       __aeabi_dadd ; 0x1c4
        0x00001dc6:    462a        *F      MOV      r2,r5
        0x00001dc8:    4633        3F      MOV      r3,r6
        0x00001dca:    f7fefaad    ....    BL       __aeabi_dmul ; 0x328
        0x00001dce:    68e3        .h      LDR      r3,[r4,#0xc]
        0x00001dd0:    68a2        .h      LDR      r2,[r4,#8]
        0x00001dd2:    f7fef9f7    ....    BL       __aeabi_dadd ; 0x1c4
        0x00001dd6:    462a        *F      MOV      r2,r5
        0x00001dd8:    4633        3F      MOV      r3,r6
        0x00001dda:    f7fefaa5    ....    BL       __aeabi_dmul ; 0x328
        0x00001dde:    6863        ch      LDR      r3,[r4,#4]
        0x00001de0:    6822        "h      LDR      r2,[r4,#0]
        0x00001de2:    f7fef9ef    ....    BL       __aeabi_dadd ; 0x1c4
        0x00001de6:    bdf8        ..      POP      {r3-r7,pc}
    i.__mathlib_dbl_divzero
    __mathlib_dbl_divzero
        0x00001de8:    2200        ."      MOVS     r2,#0
        0x00001dea:    b510        ..      PUSH     {r4,lr}
        0x00001dec:    4613        .F      MOV      r3,r2
        0x00001dee:    4610        .F      MOV      r0,r2
        0x00001df0:    4901        .I      LDR      r1,[pc,#4] ; [0x1df8] = 0x3ff00000
        0x00001df2:    f7fefb01    ....    BL       __aeabi_ddiv ; 0x3f8
        0x00001df6:    bd10        ..      POP      {r4,pc}
    $d
        0x00001df8:    3ff00000    ...?    DCD    1072693248
    $t
    i.__mathlib_dbl_infnan
    __mathlib_dbl_infnan
        0x00001dfc:    b510        ..      PUSH     {r4,lr}
        0x00001dfe:    2201        ."      MOVS     r2,#1
        0x00001e00:    f7fefc8f    ....    BL       __ARM_scalbn ; 0x722
        0x00001e04:    bd10        ..      POP      {r4,pc}
    i.__mathlib_dbl_infnan2
    __mathlib_dbl_infnan2
        0x00001e06:    b510        ..      PUSH     {r4,lr}
        0x00001e08:    f7fef9dc    ....    BL       __aeabi_dadd ; 0x1c4
        0x00001e0c:    bd10        ..      POP      {r4,pc}
    i.__mathlib_dbl_invalid
    __mathlib_dbl_invalid
        0x00001e0e:    2200        ."      MOVS     r2,#0
        0x00001e10:    b510        ..      PUSH     {r4,lr}
        0x00001e12:    4613        .F      MOV      r3,r2
        0x00001e14:    4610        .F      MOV      r0,r2
        0x00001e16:    4611        .F      MOV      r1,r2
        0x00001e18:    f7fefaee    ....    BL       __aeabi_ddiv ; 0x3f8
        0x00001e1c:    bd10        ..      POP      {r4,pc}
        0x00001e1e:    0000        ..      MOVS     r0,r0
    i.__mathlib_dbl_overflow
    __mathlib_dbl_overflow
        0x00001e20:    b510        ..      PUSH     {r4,lr}
        0x00001e22:    2107        .!      MOVS     r1,#7
        0x00001e24:    4a02        .J      LDR      r2,[pc,#8] ; [0x1e30] = 0x301
        0x00001e26:    2000        .       MOVS     r0,#0
        0x00001e28:    0709        ..      LSLS     r1,r1,#28
        0x00001e2a:    f7fefc7a    ..z.    BL       __ARM_scalbn ; 0x722
        0x00001e2e:    bd10        ..      POP      {r4,pc}
    $d
        0x00001e30:    00000301    ....    DCD    769
    $t
    i.__mathlib_dbl_underflow
    __mathlib_dbl_underflow
        0x00001e34:    4a03        .J      LDR      r2,[pc,#12] ; [0x1e44] = 0xfffffd01
        0x00001e36:    b510        ..      PUSH     {r4,lr}
        0x00001e38:    2000        .       MOVS     r0,#0
        0x00001e3a:    0711        ..      LSLS     r1,r2,#28
        0x00001e3c:    f7fefc71    ..q.    BL       __ARM_scalbn ; 0x722
        0x00001e40:    bd10        ..      POP      {r4,pc}
    $d
        0x00001e42:    0000        ..      DCW    0
        0x00001e44:    fffffd01    ....    DCD    4294966529
    $t
    i.__scatterload_copy
    __scatterload_copy
        0x00001e48:    e002        ..      B        0x1e50 ; __scatterload_copy + 8
        0x00001e4a:    c808        ..      LDM      r0!,{r3}
        0x00001e4c:    1f12        ..      SUBS     r2,r2,#4
        0x00001e4e:    c108        ..      STM      r1!,{r3}
        0x00001e50:    2a00        .*      CMP      r2,#0
        0x00001e52:    d1fa        ..      BNE      0x1e4a ; __scatterload_copy + 2
        0x00001e54:    4770        pG      BX       lr
    i.__scatterload_null
    __scatterload_null
        0x00001e56:    4770        pG      BX       lr
    i.__scatterload_zeroinit
    __scatterload_zeroinit
        0x00001e58:    2000        .       MOVS     r0,#0
        0x00001e5a:    e001        ..      B        0x1e60 ; __scatterload_zeroinit + 8
        0x00001e5c:    c101        ..      STM      r1!,{r0}
        0x00001e5e:    1f12        ..      SUBS     r2,r2,#4
        0x00001e60:    2a00        .*      CMP      r2,#0
        0x00001e62:    d1fb        ..      BNE      0x1e5c ; __scatterload_zeroinit + 4
        0x00001e64:    4770        pG      BX       lr
        0x00001e66:    0000        ..      MOVS     r0,r0
    i.__set_errno
    __set_errno
        0x00001e68:    4901        .I      LDR      r1,[pc,#4] ; [0x1e70] = 0x20000ff0
        0x00001e6a:    6008        .`      STR      r0,[r1,#0]
        0x00001e6c:    4770        pG      BX       lr
    $d
        0x00001e6e:    0000        ..      DCW    0
        0x00001e70:    20000ff0    ...     DCD    536874992
    $t
    i._printf_core
    _printf_core
        0x00001e74:    b5ff        ..      PUSH     {r0-r7,lr}
        0x00001e76:    b08d        ..      SUB      sp,sp,#0x34
        0x00001e78:    4604        .F      MOV      r4,r0
        0x00001e7a:    2500        .%      MOVS     r5,#0
        0x00001e7c:    e006        ..      B        0x1e8c ; _printf_core + 24
        0x00001e7e:    2825        %(      CMP      r0,#0x25
        0x00001e80:    d00a        ..      BEQ      0x1e98 ; _printf_core + 36
        0x00001e82:    9a10        ..      LDR      r2,[sp,#0x40]
        0x00001e84:    990f        ..      LDR      r1,[sp,#0x3c]
        0x00001e86:    4790        .G      BLX      r2
        0x00001e88:    1c64        d.      ADDS     r4,r4,#1
        0x00001e8a:    1c6d        m.      ADDS     r5,r5,#1
        0x00001e8c:    7820         x      LDRB     r0,[r4,#0]
        0x00001e8e:    2800        .(      CMP      r0,#0
        0x00001e90:    d1f5        ..      BNE      0x1e7e ; _printf_core + 10
        0x00001e92:    4628        (F      MOV      r0,r5
        0x00001e94:    b011        ..      ADD      sp,sp,#0x44
        0x00001e96:    bdf0        ..      POP      {r4-r7,pc}
        0x00001e98:    2700        .'      MOVS     r7,#0
        0x00001e9a:    2101        .!      MOVS     r1,#1
        0x00001e9c:    4a48        HJ      LDR      r2,[pc,#288] ; [0x1fc0] = 0x12809
        0x00001e9e:    9700        ..      STR      r7,[sp,#0]
        0x00001ea0:    e000        ..      B        0x1ea4 ; _printf_core + 48
        0x00001ea2:    4307        .C      ORRS     r7,r7,r0
        0x00001ea4:    1c64        d.      ADDS     r4,r4,#1
        0x00001ea6:    7823        #x      LDRB     r3,[r4,#0]
        0x00001ea8:    4608        .F      MOV      r0,r1
        0x00001eaa:    3b20         ;      SUBS     r3,r3,#0x20
        0x00001eac:    4098        .@      LSLS     r0,r0,r3
        0x00001eae:    4210        .B      TST      r0,r2
        0x00001eb0:    d1f7        ..      BNE      0x1ea2 ; _printf_core + 46
        0x00001eb2:    7820         x      LDRB     r0,[r4,#0]
        0x00001eb4:    282e        .(      CMP      r0,#0x2e
        0x00001eb6:    d117        ..      BNE      0x1ee8 ; _printf_core + 116
        0x00001eb8:    2004        .       MOVS     r0,#4
        0x00001eba:    4307        .C      ORRS     r7,r7,r0
        0x00001ebc:    7860        `x      LDRB     r0,[r4,#1]
        0x00001ebe:    1c64        d.      ADDS     r4,r4,#1
        0x00001ec0:    282a        *(      CMP      r0,#0x2a
        0x00001ec2:    d10c        ..      BNE      0x1ede ; _printf_core + 106
        0x00001ec4:    980e        ..      LDR      r0,[sp,#0x38]
        0x00001ec6:    1c64        d.      ADDS     r4,r4,#1
        0x00001ec8:    c802        ..      LDM      r0!,{r1}
        0x00001eca:    9100        ..      STR      r1,[sp,#0]
        0x00001ecc:    900e        ..      STR      r0,[sp,#0x38]
        0x00001ece:    e00b        ..      B        0x1ee8 ; _printf_core + 116
        0x00001ed0:    9900        ..      LDR      r1,[sp,#0]
        0x00001ed2:    220a        ."      MOVS     r2,#0xa
        0x00001ed4:    4351        QC      MULS     r1,r2,r1
        0x00001ed6:    3930        09      SUBS     r1,r1,#0x30
        0x00001ed8:    1840        @.      ADDS     r0,r0,r1
        0x00001eda:    1c64        d.      ADDS     r4,r4,#1
        0x00001edc:    9000        ..      STR      r0,[sp,#0]
        0x00001ede:    7820         x      LDRB     r0,[r4,#0]
        0x00001ee0:    4601        .F      MOV      r1,r0
        0x00001ee2:    3930        09      SUBS     r1,r1,#0x30
        0x00001ee4:    2909        .)      CMP      r1,#9
        0x00001ee6:    d9f3        ..      BLS      0x1ed0 ; _printf_core + 92
        0x00001ee8:    7820         x      LDRB     r0,[r4,#0]
        0x00001eea:    2800        .(      CMP      r0,#0
        0x00001eec:    d0d1        ..      BEQ      0x1e92 ; _printf_core + 30
        0x00001eee:    2864        d(      CMP      r0,#0x64
        0x00001ef0:    d008        ..      BEQ      0x1f04 ; _printf_core + 144
        0x00001ef2:    2869        i(      CMP      r0,#0x69
        0x00001ef4:    d006        ..      BEQ      0x1f04 ; _printf_core + 144
        0x00001ef6:    2875        u(      CMP      r0,#0x75
        0x00001ef8:    d01e        ..      BEQ      0x1f38 ; _printf_core + 196
        0x00001efa:    9a10        ..      LDR      r2,[sp,#0x40]
        0x00001efc:    990f        ..      LDR      r1,[sp,#0x3c]
        0x00001efe:    4790        .G      BLX      r2
        0x00001f00:    1c6d        m.      ADDS     r5,r5,#1
        0x00001f02:    e05b        [.      B        0x1fbc ; _printf_core + 328
        0x00001f04:    200a        .       MOVS     r0,#0xa
        0x00001f06:    990e        ..      LDR      r1,[sp,#0x38]
        0x00001f08:    9001        ..      STR      r0,[sp,#4]
        0x00001f0a:    c901        ..      LDM      r1!,{r0}
        0x00001f0c:    910e        ..      STR      r1,[sp,#0x38]
        0x00001f0e:    2800        .(      CMP      r0,#0
        0x00001f10:    da02        ..      BGE      0x1f18 ; _printf_core + 164
        0x00001f12:    4240        @B      RSBS     r0,r0,#0
        0x00001f14:    212d        -!      MOVS     r1,#0x2d
        0x00001f16:    e002        ..      B        0x1f1e ; _printf_core + 170
        0x00001f18:    0539        9.      LSLS     r1,r7,#20
        0x00001f1a:    d504        ..      BPL      0x1f26 ; _printf_core + 178
        0x00001f1c:    212b        +!      MOVS     r1,#0x2b
        0x00001f1e:    466a        jF      MOV      r2,sp
        0x00001f20:    7211        .r      STRB     r1,[r2,#8]
        0x00001f22:    2101        .!      MOVS     r1,#1
        0x00001f24:    e003        ..      B        0x1f2e ; _printf_core + 186
        0x00001f26:    07f9        ..      LSLS     r1,r7,#31
        0x00001f28:    d004        ..      BEQ      0x1f34 ; _printf_core + 192
        0x00001f2a:    2120         !      MOVS     r1,#0x20
        0x00001f2c:    e7f7        ..      B        0x1f1e ; _printf_core + 170
        0x00001f2e:    ae0b        ..      ADD      r6,sp,#0x2c
        0x00001f30:    910b        ..      STR      r1,[sp,#0x2c]
        0x00001f32:    e00d        ..      B        0x1f50 ; _printf_core + 220
        0x00001f34:    2100        .!      MOVS     r1,#0
        0x00001f36:    e7fa        ..      B        0x1f2e ; _printf_core + 186
        0x00001f38:    200a        .       MOVS     r0,#0xa
        0x00001f3a:    990e        ..      LDR      r1,[sp,#0x38]
        0x00001f3c:    9001        ..      STR      r0,[sp,#4]
        0x00001f3e:    c901        ..      LDM      r1!,{r0}
        0x00001f40:    910e        ..      STR      r1,[sp,#0x38]
        0x00001f42:    e7f7        ..      B        0x1f34 ; _printf_core + 192
        0x00001f44:    9901        ..      LDR      r1,[sp,#4]
        0x00001f46:    f7fef8e7    ....    BL       __aeabi_uidiv ; 0x118
        0x00001f4a:    3130        01      ADDS     r1,r1,#0x30
        0x00001f4c:    1e76        v.      SUBS     r6,r6,#1
        0x00001f4e:    7031        1p      STRB     r1,[r6,#0]
        0x00001f50:    2800        .(      CMP      r0,#0
        0x00001f52:    d1f7        ..      BNE      0x1f44 ; _printf_core + 208
        0x00001f54:    a803        ..      ADD      r0,sp,#0xc
        0x00001f56:    1b80        ..      SUBS     r0,r0,r6
        0x00001f58:    3020         0      ADDS     r0,r0,#0x20
        0x00001f5a:    9001        ..      STR      r0,[sp,#4]
        0x00001f5c:    0778        x.      LSLS     r0,r7,#29
        0x00001f5e:    d501        ..      BPL      0x1f64 ; _printf_core + 240
        0x00001f60:    9800        ..      LDR      r0,[sp,#0]
        0x00001f62:    e001        ..      B        0x1f68 ; _printf_core + 244
        0x00001f64:    2001        .       MOVS     r0,#1
        0x00001f66:    9000        ..      STR      r0,[sp,#0]
        0x00001f68:    9901        ..      LDR      r1,[sp,#4]
        0x00001f6a:    4288        .B      CMP      r0,r1
        0x00001f6c:    dd01        ..      BLE      0x1f72 ; _printf_core + 254
        0x00001f6e:    1a40        @.      SUBS     r0,r0,r1
        0x00001f70:    e000        ..      B        0x1f74 ; _printf_core + 256
        0x00001f72:    2000        .       MOVS     r0,#0
        0x00001f74:    2700        .'      MOVS     r7,#0
        0x00001f76:    9000        ..      STR      r0,[sp,#0]
        0x00001f78:    e006        ..      B        0x1f88 ; _printf_core + 276
        0x00001f7a:    a802        ..      ADD      r0,sp,#8
        0x00001f7c:    9a10        ..      LDR      r2,[sp,#0x40]
        0x00001f7e:    5dc0        .]      LDRB     r0,[r0,r7]
        0x00001f80:    990f        ..      LDR      r1,[sp,#0x3c]
        0x00001f82:    4790        .G      BLX      r2
        0x00001f84:    1c6d        m.      ADDS     r5,r5,#1
        0x00001f86:    1c7f        ..      ADDS     r7,r7,#1
        0x00001f88:    980b        ..      LDR      r0,[sp,#0x2c]
        0x00001f8a:    4287        .B      CMP      r7,r0
        0x00001f8c:    dbf5        ..      BLT      0x1f7a ; _printf_core + 262
        0x00001f8e:    e004        ..      B        0x1f9a ; _printf_core + 294
        0x00001f90:    9a10        ..      LDR      r2,[sp,#0x40]
        0x00001f92:    2030        0       MOVS     r0,#0x30
        0x00001f94:    990f        ..      LDR      r1,[sp,#0x3c]
        0x00001f96:    4790        .G      BLX      r2
        0x00001f98:    1c6d        m.      ADDS     r5,r5,#1
        0x00001f9a:    9900        ..      LDR      r1,[sp,#0]
        0x00001f9c:    1e48        H.      SUBS     r0,r1,#1
        0x00001f9e:    9000        ..      STR      r0,[sp,#0]
        0x00001fa0:    2900        .)      CMP      r1,#0
        0x00001fa2:    dcf5        ..      BGT      0x1f90 ; _printf_core + 284
        0x00001fa4:    e005        ..      B        0x1fb2 ; _printf_core + 318
        0x00001fa6:    7830        0x      LDRB     r0,[r6,#0]
        0x00001fa8:    9a10        ..      LDR      r2,[sp,#0x40]
        0x00001faa:    1c76        v.      ADDS     r6,r6,#1
        0x00001fac:    990f        ..      LDR      r1,[sp,#0x3c]
        0x00001fae:    4790        .G      BLX      r2
        0x00001fb0:    1c6d        m.      ADDS     r5,r5,#1
        0x00001fb2:    9901        ..      LDR      r1,[sp,#4]
        0x00001fb4:    1e48        H.      SUBS     r0,r1,#1
        0x00001fb6:    9001        ..      STR      r0,[sp,#4]
        0x00001fb8:    2900        .)      CMP      r1,#0
        0x00001fba:    dcf4        ..      BGT      0x1fa6 ; _printf_core + 306
        0x00001fbc:    1c64        d.      ADDS     r4,r4,#1
        0x00001fbe:    e765        e.      B        0x1e8c ; _printf_core + 24
    $d
        0x00001fc0:    00012809    .(..    DCD    75785
    $t
    i._sputc
    _sputc
        0x00001fc4:    680a        .h      LDR      r2,[r1,#0]
        0x00001fc6:    1c53        S.      ADDS     r3,r2,#1
        0x00001fc8:    600b        .`      STR      r3,[r1,#0]
        0x00001fca:    7010        .p      STRB     r0,[r2,#0]
        0x00001fcc:    4770        pG      BX       lr
        0x00001fce:    0000        ..      MOVS     r0,r0
    i.atan
    atan
        0x00001fd0:    b5f0        ..      PUSH     {r4-r7,lr}
        0x00001fd2:    b089        ..      SUB      sp,sp,#0x24
        0x00001fd4:    4604        .F      MOV      r4,r0
        0x00001fd6:    460d        .F      MOV      r5,r1
        0x00001fd8:    0048        H.      LSLS     r0,r1,#1
        0x00001fda:    9106        ..      STR      r1,[sp,#0x18]
        0x00001fdc:    4972        rI      LDR      r1,[pc,#456] ; [0x21a8] = 0x44100000
        0x00001fde:    0840        @.      LSRS     r0,r0,#1
        0x00001fe0:    4288        .B      CMP      r0,r1
        0x00001fe2:    db15        ..      BLT      0x2010 ; atan + 64
        0x00001fe4:    4971        qI      LDR      r1,[pc,#452] ; [0x21ac] = 0x7ff00000
        0x00001fe6:    4288        .B      CMP      r0,r1
        0x00001fe8:    dc03        ..      BGT      0x1ff2 ; atan + 34
        0x00001fea:    4288        .B      CMP      r0,r1
        0x00001fec:    d107        ..      BNE      0x1ffe ; atan + 46
        0x00001fee:    2c00        .,      CMP      r4,#0
        0x00001ff0:    d005        ..      BEQ      0x1ffe ; atan + 46
        0x00001ff2:    4620         F      MOV      r0,r4
        0x00001ff4:    4629        )F      MOV      r1,r5
        0x00001ff6:    f7ffff01    ....    BL       __mathlib_dbl_infnan ; 0x1dfc
        0x00001ffa:    b009        ..      ADD      sp,sp,#0x24
        0x00001ffc:    bdf0        ..      POP      {r4-r7,pc}
        0x00001ffe:    486c        lH      LDR      r0,[pc,#432] ; [0x21b0] = 0x54442d18
        0x00002000:    2d00        .-      CMP      r5,#0
        0x00002002:    dd02        ..      BLE      0x200a ; atan + 58
        0x00002004:    496b        kI      LDR      r1,[pc,#428] ; [0x21b4] = 0x3ff921fb
        0x00002006:    b009        ..      ADD      sp,sp,#0x24
        0x00002008:    bdf0        ..      POP      {r4-r7,pc}
        0x0000200a:    496b        kI      LDR      r1,[pc,#428] ; [0x21b8] = 0xbff921fb
        0x0000200c:    b009        ..      ADD      sp,sp,#0x24
        0x0000200e:    bdf0        ..      POP      {r4-r7,pc}
        0x00002010:    496a        jI      LDR      r1,[pc,#424] ; [0x21bc] = 0x3fdc0000
        0x00002012:    4288        .B      CMP      r0,r1
        0x00002014:    da11        ..      BGE      0x203a ; atan + 106
        0x00002016:    496a        jI      LDR      r1,[pc,#424] ; [0x21c0] = 0x3e200000
        0x00002018:    4288        .B      CMP      r0,r1
        0x0000201a:    da0b        ..      BGE      0x2034 ; atan + 100
        0x0000201c:    4620         F      MOV      r0,r4
        0x0000201e:    4629        )F      MOV      r1,r5
        0x00002020:    f7fffe76    ..v.    BL       __ARM_fpclassify ; 0x1d10
        0x00002024:    2804        .(      CMP      r0,#4
        0x00002026:    d101        ..      BNE      0x202c ; atan + 92
        0x00002028:    f7ffff04    ....    BL       __mathlib_dbl_underflow ; 0x1e34
        0x0000202c:    4620         F      MOV      r0,r4
        0x0000202e:    4629        )F      MOV      r1,r5
        0x00002030:    b009        ..      ADD      sp,sp,#0x24
        0x00002032:    bdf0        ..      POP      {r4-r7,pc}
        0x00002034:    2600        .&      MOVS     r6,#0
        0x00002036:    43f6        .C      MVNS     r6,r6
        0x00002038:    e05d        ].      B        0x20f6 ; atan + 294
        0x0000203a:    006d        m.      LSLS     r5,r5,#1
        0x0000203c:    4961        aI      LDR      r1,[pc,#388] ; [0x21c4] = 0x3ff30000
        0x0000203e:    086d        m.      LSRS     r5,r5,#1
        0x00002040:    4288        .B      CMP      r0,r1
        0x00002042:    da32        2.      BGE      0x20aa ; atan + 218
        0x00002044:    4960        `I      LDR      r1,[pc,#384] ; [0x21c8] = 0x3fe60000
        0x00002046:    4288        .B      CMP      r0,r1
        0x00002048:    da19        ..      BGE      0x207e ; atan + 174
        0x0000204a:    2600        .&      MOVS     r6,#0
        0x0000204c:    2301        .#      MOVS     r3,#1
        0x0000204e:    4632        2F      MOV      r2,r6
        0x00002050:    079b        ..      LSLS     r3,r3,#30
        0x00002052:    4620         F      MOV      r0,r4
        0x00002054:    4629        )F      MOV      r1,r5
        0x00002056:    f7fef8b5    ....    BL       __aeabi_dadd ; 0x1c4
        0x0000205a:    4607        .F      MOV      r7,r0
        0x0000205c:    9101        ..      STR      r1,[sp,#4]
        0x0000205e:    2201        ."      MOVS     r2,#1
        0x00002060:    4620         F      MOV      r0,r4
        0x00002062:    4629        )F      MOV      r1,r5
        0x00002064:    f7fefb5d    ..].    BL       __ARM_scalbn ; 0x722
        0x00002068:    2200        ."      MOVS     r2,#0
        0x0000206a:    4b58        XK      LDR      r3,[pc,#352] ; [0x21cc] = 0x3ff00000
        0x0000206c:    f7fef94e    ..N.    BL       __aeabi_dsub ; 0x30c
        0x00002070:    463a        :F      MOV      r2,r7
        0x00002072:    9b01        ..      LDR      r3,[sp,#4]
        0x00002074:    f7fef9c0    ....    BL       __aeabi_ddiv ; 0x3f8
        0x00002078:    4604        .F      MOV      r4,r0
        0x0000207a:    460d        .F      MOV      r5,r1
        0x0000207c:    e03b        ;.      B        0x20f6 ; atan + 294
        0x0000207e:    2601        .&      MOVS     r6,#1
        0x00002080:    2200        ."      MOVS     r2,#0
        0x00002082:    4b52        RK      LDR      r3,[pc,#328] ; [0x21cc] = 0x3ff00000
        0x00002084:    4620         F      MOV      r0,r4
        0x00002086:    4629        )F      MOV      r1,r5
        0x00002088:    f7fef89c    ....    BL       __aeabi_dadd ; 0x1c4
        0x0000208c:    4607        .F      MOV      r7,r0
        0x0000208e:    9100        ..      STR      r1,[sp,#0]
        0x00002090:    2200        ."      MOVS     r2,#0
        0x00002092:    4b4e        NK      LDR      r3,[pc,#312] ; [0x21cc] = 0x3ff00000
        0x00002094:    4620         F      MOV      r0,r4
        0x00002096:    4629        )F      MOV      r1,r5
        0x00002098:    f7fef938    ..8.    BL       __aeabi_dsub ; 0x30c
        0x0000209c:    463a        :F      MOV      r2,r7
        0x0000209e:    9b00        ..      LDR      r3,[sp,#0]
        0x000020a0:    f7fef9aa    ....    BL       __aeabi_ddiv ; 0x3f8
        0x000020a4:    4604        .F      MOV      r4,r0
        0x000020a6:    460d        .F      MOV      r5,r1
        0x000020a8:    e025        %.      B        0x20f6 ; atan + 294
        0x000020aa:    4949        II      LDR      r1,[pc,#292] ; [0x21d0] = 0x40038000
        0x000020ac:    4288        .B      CMP      r0,r1
        0x000020ae:    da19        ..      BGE      0x20e4 ; atan + 276
        0x000020b0:    2602        .&      MOVS     r6,#2
        0x000020b2:    2200        ."      MOVS     r2,#0
        0x000020b4:    4b47        GK      LDR      r3,[pc,#284] ; [0x21d4] = 0x3ff80000
        0x000020b6:    4620         F      MOV      r0,r4
        0x000020b8:    4629        )F      MOV      r1,r5
        0x000020ba:    f7fef935    ..5.    BL       __aeabi_dmul ; 0x328
        0x000020be:    2200        ."      MOVS     r2,#0
        0x000020c0:    4b42        BK      LDR      r3,[pc,#264] ; [0x21cc] = 0x3ff00000
        0x000020c2:    f7fef87f    ....    BL       __aeabi_dadd ; 0x1c4
        0x000020c6:    4607        .F      MOV      r7,r0
        0x000020c8:    9102        ..      STR      r1,[sp,#8]
        0x000020ca:    2200        ."      MOVS     r2,#0
        0x000020cc:    4b41        AK      LDR      r3,[pc,#260] ; [0x21d4] = 0x3ff80000
        0x000020ce:    4620         F      MOV      r0,r4
        0x000020d0:    4629        )F      MOV      r1,r5
        0x000020d2:    f7fef91b    ....    BL       __aeabi_dsub ; 0x30c
        0x000020d6:    463a        :F      MOV      r2,r7
        0x000020d8:    9b02        ..      LDR      r3,[sp,#8]
        0x000020da:    f7fef98d    ....    BL       __aeabi_ddiv ; 0x3f8
        0x000020de:    4604        .F      MOV      r4,r0
        0x000020e0:    460d        .F      MOV      r5,r1
        0x000020e2:    e008        ..      B        0x20f6 ; atan + 294
        0x000020e4:    2603        .&      MOVS     r6,#3
        0x000020e6:    4622        "F      MOV      r2,r4
        0x000020e8:    462b        +F      MOV      r3,r5
        0x000020ea:    2000        .       MOVS     r0,#0
        0x000020ec:    493a        :I      LDR      r1,[pc,#232] ; [0x21d8] = 0xbff00000
        0x000020ee:    f7fef983    ....    BL       __aeabi_ddiv ; 0x3f8
        0x000020f2:    4604        .F      MOV      r4,r0
        0x000020f4:    460d        .F      MOV      r5,r1
        0x000020f6:    4622        "F      MOV      r2,r4
        0x000020f8:    462b        +F      MOV      r3,r5
        0x000020fa:    4610        .F      MOV      r0,r2
        0x000020fc:    4619        .F      MOV      r1,r3
        0x000020fe:    f7fef913    ....    BL       __aeabi_dmul ; 0x328
        0x00002102:    4607        .F      MOV      r7,r0
        0x00002104:    460b        .F      MOV      r3,r1
        0x00002106:    4602        .F      MOV      r2,r0
        0x00002108:    9101        ..      STR      r1,[sp,#4]
        0x0000210a:    f7fef90d    ....    BL       __aeabi_dmul ; 0x328
        0x0000210e:    4602        .F      MOV      r2,r0
        0x00002110:    9002        ..      STR      r0,[sp,#8]
        0x00002112:    4832        2H      LDR      r0,[pc,#200] ; [0x21dc] = 0x183a
        0x00002114:    460b        .F      MOV      r3,r1
        0x00002116:    9103        ..      STR      r1,[sp,#0xc]
        0x00002118:    2106        .!      MOVS     r1,#6
        0x0000211a:    4478        xD      ADD      r0,r0,pc
        0x0000211c:    f7fffe0e    ....    BL       __kernel_poly ; 0x1d3c
        0x00002120:    463a        :F      MOV      r2,r7
        0x00002122:    9b01        ..      LDR      r3,[sp,#4]
        0x00002124:    f7fef900    ....    BL       __aeabi_dmul ; 0x328
        0x00002128:    9000        ..      STR      r0,[sp,#0]
        0x0000212a:    482d        -H      LDR      r0,[pc,#180] ; [0x21e0] = 0x17fc
        0x0000212c:    9101        ..      STR      r1,[sp,#4]
        0x0000212e:    2105        .!      MOVS     r1,#5
        0x00002130:    4478        xD      ADD      r0,r0,pc
        0x00002132:    9b03        ..      LDR      r3,[sp,#0xc]
        0x00002134:    9a02        ..      LDR      r2,[sp,#8]
        0x00002136:    f7fffe01    ....    BL       __kernel_poly ; 0x1d3c
        0x0000213a:    9b03        ..      LDR      r3,[sp,#0xc]
        0x0000213c:    9a02        ..      LDR      r2,[sp,#8]
        0x0000213e:    f7fef8f3    ....    BL       __aeabi_dmul ; 0x328
        0x00002142:    4602        .F      MOV      r2,r0
        0x00002144:    460b        .F      MOV      r3,r1
        0x00002146:    9901        ..      LDR      r1,[sp,#4]
        0x00002148:    9800        ..      LDR      r0,[sp,#0]
        0x0000214a:    2e00        ..      CMP      r6,#0
        0x0000214c:    da0b        ..      BGE      0x2166 ; atan + 406
        0x0000214e:    f7fef839    ..9.    BL       __aeabi_dadd ; 0x1c4
        0x00002152:    4622        "F      MOV      r2,r4
        0x00002154:    462b        +F      MOV      r3,r5
        0x00002156:    f7fef8e7    ....    BL       __aeabi_dmul ; 0x328
        0x0000215a:    4622        "F      MOV      r2,r4
        0x0000215c:    462b        +F      MOV      r3,r5
        0x0000215e:    f7fef8db    ....    BL       __aeabi_drsub ; 0x318
        0x00002162:    b009        ..      ADD      sp,sp,#0x24
        0x00002164:    bdf0        ..      POP      {r4-r7,pc}
        0x00002166:    f7fef82d    ..-.    BL       __aeabi_dadd ; 0x1c4
        0x0000216a:    4622        "F      MOV      r2,r4
        0x0000216c:    462b        +F      MOV      r3,r5
        0x0000216e:    f7fef8db    ....    BL       __aeabi_dmul ; 0x328
        0x00002172:    4a1c        .J      LDR      r2,[pc,#112] ; [0x21e4] = 0x1796
        0x00002174:    00f6        ..      LSLS     r6,r6,#3
        0x00002176:    447a        zD      ADD      r2,r2,pc
        0x00002178:    1993        ..      ADDS     r3,r2,r6
        0x0000217a:    681a        .h      LDR      r2,[r3,#0]
        0x0000217c:    685b        [h      LDR      r3,[r3,#4]
        0x0000217e:    f7fef8c5    ....    BL       __aeabi_dsub ; 0x30c
        0x00002182:    4622        "F      MOV      r2,r4
        0x00002184:    462b        +F      MOV      r3,r5
        0x00002186:    f7fef8c1    ....    BL       __aeabi_dsub ; 0x30c
        0x0000218a:    4a17        .J      LDR      r2,[pc,#92] ; [0x21e8] = 0x1760
        0x0000218c:    447a        zD      ADD      r2,r2,pc
        0x0000218e:    1993        ..      ADDS     r3,r2,r6
        0x00002190:    681a        .h      LDR      r2,[r3,#0]
        0x00002192:    685b        [h      LDR      r3,[r3,#4]
        0x00002194:    f7fef8c0    ....    BL       __aeabi_drsub ; 0x318
        0x00002198:    9a06        ..      LDR      r2,[sp,#0x18]
        0x0000219a:    2a00        .*      CMP      r2,#0
        0x0000219c:    dae1        ..      BGE      0x2162 ; atan + 402
        0x0000219e:    2201        ."      MOVS     r2,#1
        0x000021a0:    07d2        ..      LSLS     r2,r2,#31
        0x000021a2:    4051        Q@      EORS     r1,r1,r2
        0x000021a4:    b009        ..      ADD      sp,sp,#0x24
        0x000021a6:    bdf0        ..      POP      {r4-r7,pc}
    $d
        0x000021a8:    44100000    ...D    DCD    1141899264
        0x000021ac:    7ff00000    ....    DCD    2146435072
        0x000021b0:    54442d18    .-DT    DCD    1413754136
        0x000021b4:    3ff921fb    .!.?    DCD    1073291771
        0x000021b8:    bff921fb    .!..    DCD    3220775419
        0x000021bc:    3fdc0000    ...?    DCD    1071382528
        0x000021c0:    3e200000    .. >    DCD    1042284544
        0x000021c4:    3ff30000    ...?    DCD    1072889856
        0x000021c8:    3fe60000    ...?    DCD    1072037888
        0x000021cc:    3ff00000    ...?    DCD    1072693248
        0x000021d0:    40038000    ...@    DCD    1073971200
        0x000021d4:    3ff80000    ...?    DCD    1073217536
        0x000021d8:    bff00000    ....    DCD    3220176896
        0x000021dc:    0000183a    :...    DCD    6202
        0x000021e0:    000017fc    ....    DCD    6140
        0x000021e4:    00001796    ....    DCD    6038
        0x000021e8:    00001760    `...    DCD    5984
    $t
    i.clear_LCD
    clear_LCD
        0x000021ec:    b570        p.      PUSH     {r4-r6,lr}
        0x000021ee:    2500        .%      MOVS     r5,#0
        0x000021f0:    b2e9        ..      UXTB     r1,r5
        0x000021f2:    2000        .       MOVS     r0,#0
        0x000021f4:    f000f8d3    ....    BL       lcdSetAddr ; 0x239e
        0x000021f8:    2400        .$      MOVS     r4,#0
        0x000021fa:    2000        .       MOVS     r0,#0
        0x000021fc:    f000f8ec    ....    BL       lcdWriteData ; 0x23d8
        0x00002200:    1c64        d.      ADDS     r4,r4,#1
        0x00002202:    b224        $.      SXTH     r4,r4
        0x00002204:    2c80        .,      CMP      r4,#0x80
        0x00002206:    dbf8        ..      BLT      0x21fa ; clear_LCD + 14
        0x00002208:    1c6d        m.      ADDS     r5,r5,#1
        0x0000220a:    b22d        -.      SXTH     r5,r5
        0x0000220c:    2d08        .-      CMP      r5,#8
        0x0000220e:    dbef        ..      BLT      0x21f0 ; clear_LCD + 4
        0x00002210:    bd70        p.      POP      {r4-r6,pc}
    i.draw_Bmp32x32
    draw_Bmp32x32
        0x00002212:    b5ff        ..      PUSH     {r0-r7,lr}
        0x00002214:    b087        ..      SUB      sp,sp,#0x1c
        0x00002216:    9807        ..      LDR      r0,[sp,#0x1c]
        0x00002218:    2861        a(      CMP      r0,#0x61
        0x0000221a:    da3a        :.      BGE      0x2292 ; draw_Bmp32x32 + 128
        0x0000221c:    9808        ..      LDR      r0,[sp,#0x20]
        0x0000221e:    2821        !(      CMP      r0,#0x21
        0x00002220:    da37        7.      BGE      0x2292 ; draw_Bmp32x32 + 128
        0x00002222:    2700        .'      MOVS     r7,#0
        0x00002224:    0178        x.      LSLS     r0,r7,#5
        0x00002226:    9003        ..      STR      r0,[sp,#0xc]
        0x00002228:    9908        ..      LDR      r1,[sp,#0x20]
        0x0000222a:    2600        .&      MOVS     r6,#0
        0x0000222c:    00f8        ..      LSLS     r0,r7,#3
        0x0000222e:    1840        @.      ADDS     r0,r0,r1
        0x00002230:    9002        ..      STR      r0,[sp,#8]
        0x00002232:    0130        0.      LSLS     r0,r6,#4
        0x00002234:    9907        ..      LDR      r1,[sp,#0x1c]
        0x00002236:    2500        .%      MOVS     r5,#0
        0x00002238:    9001        ..      STR      r0,[sp,#4]
        0x0000223a:    1840        @.      ADDS     r0,r0,r1
        0x0000223c:    9000        ..      STR      r0,[sp,#0]
        0x0000223e:    1940        @.      ADDS     r0,r0,r5
        0x00002240:    b2c0        ..      UXTB     r0,r0
        0x00002242:    9004        ..      STR      r0,[sp,#0x10]
        0x00002244:    9801        ..      LDR      r0,[sp,#4]
        0x00002246:    1941        A.      ADDS     r1,r0,r5
        0x00002248:    9803        ..      LDR      r0,[sp,#0xc]
        0x0000224a:    1809        ..      ADDS     r1,r1,r0
        0x0000224c:    9810        ..      LDR      r0,[sp,#0x40]
        0x0000224e:    2400        .$      MOVS     r4,#0
        0x00002250:    5c40        @\      LDRB     r0,[r0,r1]
        0x00002252:    9005        ..      STR      r0,[sp,#0x14]
        0x00002254:    9802        ..      LDR      r0,[sp,#8]
        0x00002256:    9a05        ..      LDR      r2,[sp,#0x14]
        0x00002258:    1900        ..      ADDS     r0,r0,r4
        0x0000225a:    b2c1        ..      UXTB     r1,r0
        0x0000225c:    2001        .       MOVS     r0,#1
        0x0000225e:    40a0        .@      LSLS     r0,r0,r4
        0x00002260:    4210        .B      TST      r0,r2
        0x00002262:    d004        ..      BEQ      0x226e ; draw_Bmp32x32 + 92
        0x00002264:    9b0a        ..      LDR      r3,[sp,#0x28]
        0x00002266:    9a09        ..      LDR      r2,[sp,#0x24]
        0x00002268:    9804        ..      LDR      r0,[sp,#0x10]
        0x0000226a:    f000f86d    ..m.    BL       draw_Pixel ; 0x2348
        0x0000226e:    1c64        d.      ADDS     r4,r4,#1
        0x00002270:    b2e4        ..      UXTB     r4,r4
        0x00002272:    2c08        .,      CMP      r4,#8
        0x00002274:    d3ee        ..      BCC      0x2254 ; draw_Bmp32x32 + 66
        0x00002276:    1c6d        m.      ADDS     r5,r5,#1
        0x00002278:    b2ed        ..      UXTB     r5,r5
        0x0000227a:    2d10        .-      CMP      r5,#0x10
        0x0000227c:    d201        ..      BCS      0x2282 ; draw_Bmp32x32 + 112
        0x0000227e:    9800        ..      LDR      r0,[sp,#0]
        0x00002280:    e7dd        ..      B        0x223e ; draw_Bmp32x32 + 44
        0x00002282:    1c76        v.      ADDS     r6,r6,#1
        0x00002284:    b2f6        ..      UXTB     r6,r6
        0x00002286:    2e02        ..      CMP      r6,#2
        0x00002288:    d3d3        ..      BCC      0x2232 ; draw_Bmp32x32 + 32
        0x0000228a:    1c7f        ..      ADDS     r7,r7,#1
        0x0000228c:    b2ff        ..      UXTB     r7,r7
        0x0000228e:    2f04        ./      CMP      r7,#4
        0x00002290:    d3c8        ..      BCC      0x2224 ; draw_Bmp32x32 + 18
        0x00002292:    b00b        ..      ADD      sp,sp,#0x2c
        0x00002294:    bdf0        ..      POP      {r4-r7,pc}
    i.draw_Bmp64x64
    draw_Bmp64x64
        0x00002296:    b5ff        ..      PUSH     {r0-r7,lr}
        0x00002298:    b087        ..      SUB      sp,sp,#0x1c
        0x0000229a:    9807        ..      LDR      r0,[sp,#0x1c]
        0x0000229c:    2841        A(      CMP      r0,#0x41
        0x0000229e:    da3a        :.      BGE      0x2316 ; draw_Bmp64x64 + 128
        0x000022a0:    9808        ..      LDR      r0,[sp,#0x20]
        0x000022a2:    2800        .(      CMP      r0,#0
        0x000022a4:    d137        7.      BNE      0x2316 ; draw_Bmp64x64 + 128
        0x000022a6:    2700        .'      MOVS     r7,#0
        0x000022a8:    01b8        ..      LSLS     r0,r7,#6
        0x000022aa:    9003        ..      STR      r0,[sp,#0xc]
        0x000022ac:    9908        ..      LDR      r1,[sp,#0x20]
        0x000022ae:    2600        .&      MOVS     r6,#0
        0x000022b0:    00f8        ..      LSLS     r0,r7,#3
        0x000022b2:    1840        @.      ADDS     r0,r0,r1
        0x000022b4:    9002        ..      STR      r0,[sp,#8]
        0x000022b6:    0130        0.      LSLS     r0,r6,#4
        0x000022b8:    9907        ..      LDR      r1,[sp,#0x1c]
        0x000022ba:    2500        .%      MOVS     r5,#0
        0x000022bc:    9001        ..      STR      r0,[sp,#4]
        0x000022be:    1840        @.      ADDS     r0,r0,r1
        0x000022c0:    9000        ..      STR      r0,[sp,#0]
        0x000022c2:    1940        @.      ADDS     r0,r0,r5
        0x000022c4:    b2c0        ..      UXTB     r0,r0
        0x000022c6:    9004        ..      STR      r0,[sp,#0x10]
        0x000022c8:    9801        ..      LDR      r0,[sp,#4]
        0x000022ca:    1941        A.      ADDS     r1,r0,r5
        0x000022cc:    9803        ..      LDR      r0,[sp,#0xc]
        0x000022ce:    1809        ..      ADDS     r1,r1,r0
        0x000022d0:    9810        ..      LDR      r0,[sp,#0x40]
        0x000022d2:    2400        .$      MOVS     r4,#0
        0x000022d4:    5c40        @\      LDRB     r0,[r0,r1]
        0x000022d6:    9005        ..      STR      r0,[sp,#0x14]
        0x000022d8:    9802        ..      LDR      r0,[sp,#8]
        0x000022da:    9a05        ..      LDR      r2,[sp,#0x14]
        0x000022dc:    1900        ..      ADDS     r0,r0,r4
        0x000022de:    b2c1        ..      UXTB     r1,r0
        0x000022e0:    2001        .       MOVS     r0,#1
        0x000022e2:    40a0        .@      LSLS     r0,r0,r4
        0x000022e4:    4210        .B      TST      r0,r2
        0x000022e6:    d004        ..      BEQ      0x22f2 ; draw_Bmp64x64 + 92
        0x000022e8:    9b0a        ..      LDR      r3,[sp,#0x28]
        0x000022ea:    9a09        ..      LDR      r2,[sp,#0x24]
        0x000022ec:    9804        ..      LDR      r0,[sp,#0x10]
        0x000022ee:    f000f82b    ..+.    BL       draw_Pixel ; 0x2348
        0x000022f2:    1c64        d.      ADDS     r4,r4,#1
        0x000022f4:    b2e4        ..      UXTB     r4,r4
        0x000022f6:    2c08        .,      CMP      r4,#8
        0x000022f8:    d3ee        ..      BCC      0x22d8 ; draw_Bmp64x64 + 66
        0x000022fa:    1c6d        m.      ADDS     r5,r5,#1
        0x000022fc:    b2ed        ..      UXTB     r5,r5
        0x000022fe:    2d10        .-      CMP      r5,#0x10
        0x00002300:    d201        ..      BCS      0x2306 ; draw_Bmp64x64 + 112
        0x00002302:    9800        ..      LDR      r0,[sp,#0]
        0x00002304:    e7dd        ..      B        0x22c2 ; draw_Bmp64x64 + 44
        0x00002306:    1c76        v.      ADDS     r6,r6,#1
        0x00002308:    b2f6        ..      UXTB     r6,r6
        0x0000230a:    2e04        ..      CMP      r6,#4
        0x0000230c:    d3d3        ..      BCC      0x22b6 ; draw_Bmp64x64 + 32
        0x0000230e:    1c7f        ..      ADDS     r7,r7,#1
        0x00002310:    b2ff        ..      UXTB     r7,r7
        0x00002312:    2f08        ./      CMP      r7,#8
        0x00002314:    d3c8        ..      BCC      0x22a8 ; draw_Bmp64x64 + 18
        0x00002316:    b00b        ..      ADD      sp,sp,#0x2c
        0x00002318:    bdf0        ..      POP      {r4-r7,pc}
    i.draw_LCD
    draw_LCD
        0x0000231a:    b570        p.      PUSH     {r4-r6,lr}
        0x0000231c:    4606        .F      MOV      r6,r0
        0x0000231e:    2500        .%      MOVS     r5,#0
        0x00002320:    2400        .$      MOVS     r4,#0
        0x00002322:    4621        !F      MOV      r1,r4
        0x00002324:    4628        (F      MOV      r0,r5
        0x00002326:    f000f83a    ..:.    BL       lcdSetAddr ; 0x239e
        0x0000232a:    01e0        ..      LSLS     r0,r4,#7
        0x0000232c:    1940        @.      ADDS     r0,r0,r5
        0x0000232e:    5c30        0\      LDRB     r0,[r6,r0]
        0x00002330:    f000f852    ..R.    BL       lcdWriteData ; 0x23d8
        0x00002334:    1c64        d.      ADDS     r4,r4,#1
        0x00002336:    b2e4        ..      UXTB     r4,r4
        0x00002338:    2c08        .,      CMP      r4,#8
        0x0000233a:    d3f2        ..      BCC      0x2322 ; draw_LCD + 8
        0x0000233c:    1c6d        m.      ADDS     r5,r5,#1
        0x0000233e:    b2ed        ..      UXTB     r5,r5
        0x00002340:    2d80        .-      CMP      r5,#0x80
        0x00002342:    d3ed        ..      BCC      0x2320 ; draw_LCD + 6
        0x00002344:    bd70        p.      POP      {r4-r6,pc}
        0x00002346:    0000        ..      MOVS     r0,r0
    i.draw_Pixel
    draw_Pixel
        0x00002348:    b570        p.      PUSH     {r4-r6,lr}
        0x0000234a:    17cb        ..      ASRS     r3,r1,#31
        0x0000234c:    0f5b        [.      LSRS     r3,r3,#29
        0x0000234e:    185c        \.      ADDS     r4,r3,r1
        0x00002350:    08e3        ..      LSRS     r3,r4,#3
        0x00002352:    00db        ..      LSLS     r3,r3,#3
        0x00002354:    1acb        ..      SUBS     r3,r1,r3
        0x00002356:    10e5        ..      ASRS     r5,r4,#3
        0x00002358:    01e9        ..      LSLS     r1,r5,#7
        0x0000235a:    180c        ..      ADDS     r4,r1,r0
        0x0000235c:    490a        .I      LDR      r1,[pc,#40] ; [0x2388] = 0x20000ff4
        0x0000235e:    1864        d.      ADDS     r4,r4,r1
        0x00002360:    7821        !x      LDRB     r1,[r4,#0]
        0x00002362:    2a00        .*      CMP      r2,#0
        0x00002364:    d003        ..      BEQ      0x236e ; draw_Pixel + 38
        0x00002366:    2201        ."      MOVS     r2,#1
        0x00002368:    409a        .@      LSLS     r2,r2,r3
        0x0000236a:    4311        .C      ORRS     r1,r1,r2
        0x0000236c:    e002        ..      B        0x2374 ; draw_Pixel + 44
        0x0000236e:    22fe        ."      MOVS     r2,#0xfe
        0x00002370:    409a        .@      LSLS     r2,r2,r3
        0x00002372:    4011        .@      ANDS     r1,r1,r2
        0x00002374:    7021        !p      STRB     r1,[r4,#0]
        0x00002376:    b2e9        ..      UXTB     r1,r5
        0x00002378:    b2c0        ..      UXTB     r0,r0
        0x0000237a:    f000f810    ....    BL       lcdSetAddr ; 0x239e
        0x0000237e:    7820         x      LDRB     r0,[r4,#0]
        0x00002380:    f000f82a    ..*.    BL       lcdWriteData ; 0x23d8
        0x00002384:    bd70        p.      POP      {r4-r6,pc}
    $d
        0x00002386:    0000        ..      DCW    0
        0x00002388:    20000ff4    ...     DCD    536874996
    $t
    i.fputc
    fputc
        0x0000238c:    b538        8.      PUSH     {r3-r5,lr}
        0x0000238e:    4604        .F      MOV      r4,r0
        0x00002390:    4668        hF      MOV      r0,sp
        0x00002392:    7004        .p      STRB     r4,[r0,#0]
        0x00002394:    4669        iF      MOV      r1,sp
        0x00002396:    2003        .       MOVS     r0,#3
        0x00002398:    beab        ..      BKPT     #0xab
        0x0000239a:    4620         F      MOV      r0,r4
        0x0000239c:    bd38        8.      POP      {r3-r5,pc}
    i.lcdSetAddr
    lcdSetAddr
        0x0000239e:    b510        ..      PUSH     {r4,lr}
        0x000023a0:    4604        .F      MOV      r4,r0
        0x000023a2:    31b0        .1      ADDS     r1,r1,#0xb0
        0x000023a4:    b2c8        ..      UXTB     r0,r1
        0x000023a6:    f000f809    ....    BL       lcdWriteCommand ; 0x23bc
        0x000023aa:    0920         .      LSRS     r0,r4,#4
        0x000023ac:    3010        .0      ADDS     r0,r0,#0x10
        0x000023ae:    f000f805    ....    BL       lcdWriteCommand ; 0x23bc
        0x000023b2:    0720         .      LSLS     r0,r4,#28
        0x000023b4:    0f00        ..      LSRS     r0,r0,#28
        0x000023b6:    f000f801    ....    BL       lcdWriteCommand ; 0x23bc
        0x000023ba:    bd10        ..      POP      {r4,pc}
    i.lcdWriteCommand
    lcdWriteCommand
        0x000023bc:    b51c        ..      PUSH     {r2-r4,lr}
        0x000023be:    4669        iF      MOV      r1,sp
        0x000023c0:    7108        .q      STRB     r0,[r1,#4]
        0x000023c2:    a801        ..      ADD      r0,sp,#4
        0x000023c4:    9000        ..      STR      r0,[sp,#0]
        0x000023c6:    2301        .#      MOVS     r3,#1
        0x000023c8:    2200        ."      MOVS     r2,#0
        0x000023ca:    2178        x!      MOVS     r1,#0x78
        0x000023cc:    4801        .H      LDR      r0,[pc,#4] ; [0x23d4] = 0x40120000
        0x000023ce:    f7fff812    ....    BL       I2C_writeBytes ; 0x13f6
        0x000023d2:    bd1c        ..      POP      {r2-r4,pc}
    $d
        0x000023d4:    40120000    ...@    DCD    1074921472
    $t
    i.lcdWriteData
    lcdWriteData
        0x000023d8:    b51c        ..      PUSH     {r2-r4,lr}
        0x000023da:    4669        iF      MOV      r1,sp
        0x000023dc:    7108        .q      STRB     r0,[r1,#4]
        0x000023de:    a801        ..      ADD      r0,sp,#4
        0x000023e0:    9000        ..      STR      r0,[sp,#0]
        0x000023e2:    2301        .#      MOVS     r3,#1
        0x000023e4:    2240        @"      MOVS     r2,#0x40
        0x000023e6:    2178        x!      MOVS     r1,#0x78
        0x000023e8:    4801        .H      LDR      r0,[pc,#4] ; [0x23f0] = 0x40120000
        0x000023ea:    f7fff804    ....    BL       I2C_writeBytes ; 0x13f6
        0x000023ee:    bd1c        ..      POP      {r2-r4,pc}
    $d
        0x000023f0:    40120000    ...@    DCD    1074921472
    $t
    i.main
    main
        0x000023f4:    b086        ..      SUB      sp,sp,#0x18
        0x000023f6:    2043        C       MOVS     r0,#0x43
        0x000023f8:    2400        .$      MOVS     r4,#0
        0x000023fa:    4626        &F      MOV      r6,r4
        0x000023fc:    9003        ..      STR      r0,[sp,#0xc]
        0x000023fe:    f7fffa25    ..%.    BL       SYS_Init ; 0x184c
        0x00002402:    f7fff8c1    ....    BL       Init_PWM ; 0x1588
        0x00002406:    f7fff837    ..7.    BL       Init_ADC ; 0x1478
        0x0000240a:    f7fff8e7    ....    BL       Init_Timer1 ; 0x15dc
        0x0000240e:    f7fff8c3    ....    BL       Init_RGBLED ; 0x1598
        0x00002412:    496e        nI      LDR      r1,[pc,#440] ; [0x25cc] = 0x61a80
        0x00002414:    486e        nH      LDR      r0,[pc,#440] ; [0x25d0] = 0x40120000
        0x00002416:    f7feff7d    ..}.    BL       I2C_Open ; 0x1314
        0x0000241a:    f7fff89f    ....    BL       Init_MPU6050 ; 0x155c
        0x0000241e:    f7fff847    ..G.    BL       Init_LCD ; 0x14b0
        0x00002422:    f7fffee3    ....    BL       clear_LCD ; 0x21ec
        0x00002426:    486b        kH      LDR      r0,[pc,#428] ; [0x25d4] = 0x200008cc
        0x00002428:    f7ffff77    ..w.    BL       draw_LCD ; 0x231a
        0x0000242c:    486a        jH      LDR      r0,[pc,#424] ; [0x25d8] = 0x4c4b40
        0x0000242e:    f7fefb17    ....    BL       CLK_SysTickDelay ; 0xa60
        0x00002432:    2700        .'      MOVS     r7,#0
        0x00002434:    2500        .%      MOVS     r5,#0
        0x00002436:    b2f9        ..      UXTB     r1,r7
        0x00002438:    b2e8        ..      UXTB     r0,r5
        0x0000243a:    2220         "      MOVS     r2,#0x20
        0x0000243c:    f000fdfc    ....    BL       print_C ; 0x3038
        0x00002440:    1c6d        m.      ADDS     r5,r5,#1
        0x00002442:    2d04        .-      CMP      r5,#4
        0x00002444:    dbf7        ..      BLT      0x2436 ; main + 66
        0x00002446:    4865        eH      LDR      r0,[pc,#404] ; [0x25dc] = 0xf4240
        0x00002448:    4286        .B      CMP      r6,r0
        0x0000244a:    da01        ..      BGE      0x2450 ; main + 92
        0x0000244c:    1c76        v.      ADDS     r6,r6,#1
        0x0000244e:    e7fb        ..      B        0x2448 ; main + 84
        0x00002450:    2600        .&      MOVS     r6,#0
        0x00002452:    1c7f        ..      ADDS     r7,r7,#1
        0x00002454:    2f10        ./      CMP      r7,#0x10
        0x00002456:    dbed        ..      BLT      0x2434 ; main + 64
        0x00002458:    f7fffec8    ....    BL       clear_LCD ; 0x21ec
        0x0000245c:    f7fff9d2    ....    BL       Read_MPU6050_AccX ; 0x1804
        0x00002460:    4605        .F      MOV      r5,r0
        0x00002462:    f7fff9e7    ....    BL       Read_MPU6050_AccZ ; 0x1834
        0x00002466:    9000        ..      STR      r0,[sp,#0]
        0x00002468:    485d        ]H      LDR      r0,[pc,#372] ; [0x25e0] = 0x20000008
        0x0000246a:    2101        .!      MOVS     r1,#1
        0x0000246c:    9501        ..      STR      r5,[sp,#4]
        0x0000246e:    8081        ..      STRH     r1,[r0,#4]
        0x00002470:    f7fff9c8    ....    BL       Read_MPU6050_AccX ; 0x1804
        0x00002474:    4607        .F      MOV      r7,r0
        0x00002476:    f7fff9d1    ....    BL       Read_MPU6050_AccY ; 0x181c
        0x0000247a:    9002        ..      STR      r0,[sp,#8]
        0x0000247c:    f7fff9da    ....    BL       Read_MPU6050_AccZ ; 0x1834
        0x00002480:    9901        ..      LDR      r1,[sp,#4]
        0x00002482:    1bcd        ..      SUBS     r5,r1,r7
        0x00002484:    9900        ..      LDR      r1,[sp,#0]
        0x00002486:    1a0e        ..      SUBS     r6,r1,r0
        0x00002488:    d500        ..      BPL      0x248c ; main + 152
        0x0000248a:    4276        vB      RSBS     r6,r6,#0
        0x0000248c:    2d00        .-      CMP      r5,#0
        0x0000248e:    da00        ..      BGE      0x2492 ; main + 158
        0x00002490:    426d        mB      RSBS     r5,r5,#0
        0x00002492:    9701        ..      STR      r7,[sp,#4]
        0x00002494:    9000        ..      STR      r0,[sp,#0]
        0x00002496:    f7fef827    ..'.    BL       __aeabi_i2d ; 0x4e8
        0x0000249a:    2301        .#      MOVS     r3,#1
        0x0000249c:    2200        ."      MOVS     r2,#0
        0x0000249e:    079b        ..      LSLS     r3,r3,#30
        0x000024a0:    f000f8cc    ....    BL       pow ; 0x263c
        0x000024a4:    9004        ..      STR      r0,[sp,#0x10]
        0x000024a6:    9105        ..      STR      r1,[sp,#0x14]
        0x000024a8:    9802        ..      LDR      r0,[sp,#8]
        0x000024aa:    f7fef81d    ....    BL       __aeabi_i2d ; 0x4e8
        0x000024ae:    2301        .#      MOVS     r3,#1
        0x000024b0:    2200        ."      MOVS     r2,#0
        0x000024b2:    079b        ..      LSLS     r3,r3,#30
        0x000024b4:    f000f8c2    ....    BL       pow ; 0x263c
        0x000024b8:    9b05        ..      LDR      r3,[sp,#0x14]
        0x000024ba:    9a04        ..      LDR      r2,[sp,#0x10]
        0x000024bc:    f7fdfe82    ....    BL       __aeabi_dadd ; 0x1c4
        0x000024c0:    f000fdf2    ....    BL       sqrt ; 0x30a8
        0x000024c4:    9004        ..      STR      r0,[sp,#0x10]
        0x000024c6:    9105        ..      STR      r1,[sp,#0x14]
        0x000024c8:    4638        8F      MOV      r0,r7
        0x000024ca:    f7fef80d    ....    BL       __aeabi_i2d ; 0x4e8
        0x000024ce:    9b05        ..      LDR      r3,[sp,#0x14]
        0x000024d0:    9a04        ..      LDR      r2,[sp,#0x10]
        0x000024d2:    f7fdff91    ....    BL       __aeabi_ddiv ; 0x3f8
        0x000024d6:    f7fffd7b    ..{.    BL       atan ; 0x1fd0
        0x000024da:    2200        ."      MOVS     r2,#0
        0x000024dc:    4b41        AK      LDR      r3,[pc,#260] ; [0x25e4] = 0x40668000
        0x000024de:    f7fdff23    ..#.    BL       __aeabi_dmul ; 0x328
        0x000024e2:    4a41        AJ      LDR      r2,[pc,#260] ; [0x25e8] = 0x54442eea
        0x000024e4:    4b41        AK      LDR      r3,[pc,#260] ; [0x25ec] = 0x400921fb
        0x000024e6:    f7fdff87    ....    BL       __aeabi_ddiv ; 0x3f8
        0x000024ea:    f7fef82a    ..*.    BL       __aeabi_d2f ; 0x542
        0x000024ee:    9002        ..      STR      r0,[sp,#8]
        0x000024f0:    f7fef80e    ....    BL       __aeabi_f2iz ; 0x510
        0x000024f4:    4601        .F      MOV      r1,r0
        0x000024f6:    4633        3F      MOV      r3,r6
        0x000024f8:    462a        *F      MOV      r2,r5
        0x000024fa:    a03d        =.      ADR      r0,{pc}+0xf6 ; 0x25f0
        0x000024fc:    f7fffbcc    ....    BL       __0printf$1 ; 0x1c98
        0x00002500:    4f37        7O      LDR      r7,[pc,#220] ; [0x25e0] = 0x20000008
        0x00002502:    2200        ."      MOVS     r2,#0
        0x00002504:    2104        .!      MOVS     r1,#4
        0x00002506:    5eba        .^      LDRSH    r2,[r7,r2]
        0x00002508:    5e79        y^      LDRSH    r1,[r7,r1]
        0x0000250a:    a041        A.      ADR      r0,{pc}+0x106 ; 0x2610
        0x0000250c:    f7fffbc4    ....    BL       __0printf$1 ; 0x1c98
        0x00002510:    f7fefb6c    ..l.    BL       DetectADC ; 0xbec
        0x00002514:    210e        .!      MOVS     r1,#0xe
        0x00002516:    5e79        y^      LDRSH    r1,[r7,r1]
        0x00002518:    9802        ..      LDR      r0,[sp,#8]
        0x0000251a:    f7fefc17    ....    BL       DetectTheta ; 0xd4c
        0x0000251e:    81f8        ..      STRH     r0,[r7,#0xe]
        0x00002520:    2008        .       MOVS     r0,#8
        0x00002522:    5e38        8^      LDRSH    r0,[r7,r0]
        0x00002524:    4320         C      ORRS     r0,r0,r4
        0x00002526:    d004        ..      BEQ      0x2532 ; main + 318
        0x00002528:    1c64        d.      ADDS     r4,r4,#1
        0x0000252a:    b224        $.      SXTH     r4,r4
        0x0000252c:    2c08        .,      CMP      r4,#8
        0x0000252e:    d00d        ..      BEQ      0x254c ; main + 344
        0x00002530:    e00d        ..      B        0x254e ; main + 346
        0x00002532:    4631        1F      MOV      r1,r6
        0x00002534:    4628        (F      MOV      r0,r5
        0x00002536:    f7fefbef    ....    BL       DetectAcc ; 0xd18
        0x0000253a:    2801        .(      CMP      r0,#1
        0x0000253c:    d1f6        ..      BNE      0x252c ; main + 312
        0x0000253e:    1c64        d.      ADDS     r4,r4,#1
        0x00002540:    2016        .       MOVS     r0,#0x16
        0x00002542:    b224        $.      SXTH     r4,r4
        0x00002544:    8038        8.      STRH     r0,[r7,#0]
        0x00002546:    f7fefab3    ....    BL       Change_mode ; 0xab0
        0x0000254a:    e7ef        ..      B        0x252c ; main + 312
        0x0000254c:    2400        .$      MOVS     r4,#0
        0x0000254e:    8938        8.      LDRH     r0,[r7,#8]
        0x00002550:    2801        .(      CMP      r0,#1
        0x00002552:    d101        ..      BNE      0x2558 ; main + 356
        0x00002554:    f7fefaac    ....    BL       Change_mode ; 0xab0
        0x00002558:    f7fefc0e    ....    BL       Draw_my_LCD ; 0xd78
        0x0000255c:    8838        8.      LDRH     r0,[r7,#0]
        0x0000255e:    281b        .(      CMP      r0,#0x1b
        0x00002560:    d109        ..      BNE      0x2576 ; main + 386
        0x00002562:    2000        .       MOVS     r0,#0
        0x00002564:    8078        x.      STRH     r0,[r7,#2]
        0x00002566:    81b8        ..      STRH     r0,[r7,#0xc]
        0x00002568:    2012        .       MOVS     r0,#0x12
        0x0000256a:    80b8        ..      STRH     r0,[r7,#4]
        0x0000256c:    9803        ..      LDR      r0,[sp,#0xc]
        0x0000256e:    f7fefd21    ..!.    BL       FatalChickenFight ; 0xfb4
        0x00002572:    f7fffe3b    ..;.    BL       clear_LCD ; 0x21ec
        0x00002576:    88b8        ..      LDRH     r0,[r7,#4]
        0x00002578:    2810        .(      CMP      r0,#0x10
        0x0000257a:    d01e        ..      BEQ      0x25ba ; main + 454
        0x0000257c:    2012        .       MOVS     r0,#0x12
        0x0000257e:    210a        .!      MOVS     r1,#0xa
        0x00002580:    5e38        8^      LDRSH    r0,[r7,r0]
        0x00002582:    f7fdfddf    ....    BL       __aeabi_idiv ; 0x144
        0x00002586:    4602        .F      MOV      r2,r0
        0x00002588:    4815        .H      LDR      r0,[pc,#84] ; [0x25e0] = 0x20000008
        0x0000258a:    a126        &.      ADR      r1,{pc}+0x9a ; 0x2624
        0x0000258c:    3014        .0      ADDS     r0,r0,#0x14
        0x0000258e:    f7fffb93    ....    BL       __0sprintf$1 ; 0x1cb8
        0x00002592:    4913        .I      LDR      r1,[pc,#76] ; [0x25e0] = 0x20000008
        0x00002594:    2000        .       MOVS     r0,#0
        0x00002596:    3114        .1      ADDS     r1,r1,#0x14
        0x00002598:    f000fd74    ..t.    BL       print_Line ; 0x3084
        0x0000259c:    2010        .       MOVS     r0,#0x10
        0x0000259e:    210a        .!      MOVS     r1,#0xa
        0x000025a0:    5e38        8^      LDRSH    r0,[r7,r0]
        0x000025a2:    f7fdfdcf    ....    BL       __aeabi_idiv ; 0x144
        0x000025a6:    4602        .F      MOV      r2,r0
        0x000025a8:    480d        .H      LDR      r0,[pc,#52] ; [0x25e0] = 0x20000008
        0x000025aa:    a11e        ..      ADR      r1,{pc}+0x7a ; 0x2624
        0x000025ac:    3014        .0      ADDS     r0,r0,#0x14
        0x000025ae:    f7fffb83    ....    BL       __0sprintf$1 ; 0x1cb8
        0x000025b2:    490b        .I      LDR      r1,[pc,#44] ; [0x25e0] = 0x20000008
        0x000025b4:    3114        .1      ADDS     r1,r1,#0x14
        0x000025b6:    2003        .       MOVS     r0,#3
        0x000025b8:    e001        ..      B        0x25be ; main + 458
        0x000025ba:    a11b        ..      ADR      r1,{pc}+0x6e ; 0x2628
        0x000025bc:    2002        .       MOVS     r0,#2
        0x000025be:    f000fd61    ..a.    BL       print_Line ; 0x3084
        0x000025c2:    2005        .       MOVS     r0,#5
        0x000025c4:    f7fefa4c    ..L.    BL       CLK_SysTickDelay ; 0xa60
        0x000025c8:    e752        R.      B        0x2470 ; main + 124
    $d
        0x000025ca:    0000        ..      DCW    0
        0x000025cc:    00061a80    ....    DCD    400000
        0x000025d0:    40120000    ...@    DCD    1074921472
        0x000025d4:    200008cc    ...     DCD    536873164
        0x000025d8:    004c4b40    @KL.    DCD    5000000
        0x000025dc:    000f4240    @B..    DCD    1000000
        0x000025e0:    20000008    ...     DCD    536870920
        0x000025e4:    40668000    ..f@    DCD    1080459264
        0x000025e8:    54442eea    ..DT    DCD    1413754602
        0x000025ec:    400921fb    .!.@    DCD    1074340347
        0x000025f0:    74656874    thet    DCD    1952802932
        0x000025f4:    64253d61    a=%d    DCD    1680162145
        0x000025f8:    7573202c    , su    DCD    1970479148
        0x000025fc:    20585f6d    m_X     DCD    542662509
        0x00002600:    2c64253d    =%d,    DCD    744760637
        0x00002604:    6d757320     sum    DCD    1836413728
        0x00002608:    253d5a5f    _Z=%    DCD    624777823
        0x0000260c:    00000a64    d...    DCD    2660
        0x00002610:    65707974    type    DCD    1701869940
        0x00002614:    2c64253d    =%d,    DCD    744760637
        0x00002618:    646f6d20     mod    DCD    1685024032
        0x0000261c:    253d2065    e =%    DCD    624762981
        0x00002620:    00000a64    d...    DCD    2660
        0x00002624:    00006425    %d..    DCD    25637
        0x00002628:    7e202020       ~    DCD    2116034592
        0x0000262c:    6147207e    ~ Ga    DCD    1632051326
        0x00002630:    4f20656d    me O    DCD    1327523181
        0x00002634:    20726576    ver     DCD    544367990
        0x00002638:    00007e7e    ~~..    DCD    32382
    $t
    i.pow
    pow
        0x0000263c:    b5f0        ..      PUSH     {r4-r7,lr}
        0x0000263e:    b41f        ..      PUSH     {r0-r4}
        0x00002640:    b096        ..      SUB      sp,sp,#0x58
        0x00002642:    4684        .F      MOV      r12,r0
        0x00002644:    460c        .F      MOV      r4,r1
        0x00002646:    4602        .F      MOV      r2,r0
        0x00002648:    9d19        ..      LDR      r5,[sp,#0x64]
        0x0000264a:    9818        ..      LDR      r0,[sp,#0x60]
        0x0000264c:    9003        ..      STR      r0,[sp,#0xc]
        0x0000264e:    0049        I.      LSLS     r1,r1,#1
        0x00002650:    0068        h.      LSLS     r0,r5,#1
        0x00002652:    0063        c.      LSLS     r3,r4,#1
        0x00002654:    0849        I.      LSRS     r1,r1,#1
        0x00002656:    0840        @.      LSRS     r0,r0,#1
        0x00002658:    9301        ..      STR      r3,[sp,#4]
        0x0000265a:    2a00        .*      CMP      r2,#0
        0x0000265c:    d001        ..      BEQ      0x2662 ; pow + 38
        0x0000265e:    2601        .&      MOVS     r6,#1
        0x00002660:    e000        ..      B        0x2664 ; pow + 40
        0x00002662:    2600        .&      MOVS     r6,#0
        0x00002664:    199e        ..      ADDS     r6,r3,r6
        0x00002666:    4bfe        .K      LDR      r3,[pc,#1016] ; [0x2a60] = 0x1fffff
        0x00002668:    18f6        ..      ADDS     r6,r6,r3
        0x0000266a:    105b        [.      ASRS     r3,r3,#1
        0x0000266c:    429e        .B      CMP      r6,r3
        0x0000266e:    d32b        +.      BCC      0x26c8 ; pow + 140
        0x00002670:    006e        n.      LSLS     r6,r5,#1
        0x00002672:    9f03        ..      LDR      r7,[sp,#0xc]
        0x00002674:    9602        ..      STR      r6,[sp,#8]
        0x00002676:    2f00        ./      CMP      r7,#0
        0x00002678:    d000        ..      BEQ      0x267c ; pow + 64
        0x0000267a:    2701        .'      MOVS     r7,#1
        0x0000267c:    19f7        ..      ADDS     r7,r6,r7
        0x0000267e:    4ef8        .N      LDR      r6,[pc,#992] ; [0x2a60] = 0x1fffff
        0x00002680:    4bf8        .K      LDR      r3,[pc,#992] ; [0x2a64] = 0xfffff
        0x00002682:    19be        ..      ADDS     r6,r7,r6
        0x00002684:    429e        .B      CMP      r6,r3
        0x00002686:    d31f        ..      BCC      0x26c8 ; pow + 140
        0x00002688:    9e03        ..      LDR      r6,[sp,#0xc]
        0x0000268a:    4603        .F      MOV      r3,r0
        0x0000268c:    4ff6        .O      LDR      r7,[pc,#984] ; [0x2a68] = 0x3ff00000
        0x0000268e:    4333        3C      ORRS     r3,r3,r6
        0x00002690:    d009        ..      BEQ      0x26a6 ; pow + 106
        0x00002692:    463b        ;F      MOV      r3,r7
        0x00002694:    429c        .B      CMP      r4,r3
        0x00002696:    d101        ..      BNE      0x269c ; pow + 96
        0x00002698:    2a00        .*      CMP      r2,#0
        0x0000269a:    d004        ..      BEQ      0x26a6 ; pow + 106
        0x0000269c:    9b01        ..      LDR      r3,[sp,#4]
        0x0000269e:    2a00        .*      CMP      r2,#0
        0x000026a0:    d005        ..      BEQ      0x26ae ; pow + 114
        0x000026a2:    2601        .&      MOVS     r6,#1
        0x000026a4:    e004        ..      B        0x26b0 ; pow + 116
        0x000026a6:    2000        .       MOVS     r0,#0
        0x000026a8:    4639        9F      MOV      r1,r7
        0x000026aa:    b01b        ..      ADD      sp,sp,#0x6c
        0x000026ac:    bdf0        ..      POP      {r4-r7,pc}
        0x000026ae:    2600        .&      MOVS     r6,#0
        0x000026b0:    199e        ..      ADDS     r6,r3,r6
        0x000026b2:    4bee        .K      LDR      r3,[pc,#952] ; [0x2a6c] = 0xffe00000
        0x000026b4:    429e        .B      CMP      r6,r3
        0x000026b6:    d807        ..      BHI      0x26c8 ; pow + 140
        0x000026b8:    9f03        ..      LDR      r7,[sp,#0xc]
        0x000026ba:    9e02        ..      LDR      r6,[sp,#8]
        0x000026bc:    2f00        ./      CMP      r7,#0
        0x000026be:    d000        ..      BEQ      0x26c2 ; pow + 134
        0x000026c0:    2701        .'      MOVS     r7,#1
        0x000026c2:    19f6        ..      ADDS     r6,r6,r7
        0x000026c4:    429e        .B      CMP      r6,r3
        0x000026c6:    d907        ..      BLS      0x26d8 ; pow + 156
        0x000026c8:    462b        +F      MOV      r3,r5
        0x000026ca:    4660        `F      MOV      r0,r12
        0x000026cc:    4621        !F      MOV      r1,r4
        0x000026ce:    9a18        ..      LDR      r2,[sp,#0x60]
        0x000026d0:    f7fffb99    ....    BL       __mathlib_dbl_infnan2 ; 0x1e06
        0x000026d4:    b01b        ..      ADD      sp,sp,#0x6c
        0x000026d6:    bdf0        ..      POP      {r4-r7,pc}
        0x000026d8:    2300        .#      MOVS     r3,#0
        0x000026da:    2c00        .,      CMP      r4,#0
        0x000026dc:    da29        ).      BGE      0x2732 ; pow + 246
        0x000026de:    4ee4        .N      LDR      r6,[pc,#912] ; [0x2a70] = 0x7ff00000
        0x000026e0:    42b0        .B      CMP      r0,r6
        0x000026e2:    da26        &.      BGE      0x2732 ; pow + 246
        0x000026e4:    4ee3        .N      LDR      r6,[pc,#908] ; [0x2a74] = 0x43400000
        0x000026e6:    42b0        .B      CMP      r0,r6
        0x000026e8:    db01        ..      BLT      0x26ee ; pow + 178
        0x000026ea:    2302        .#      MOVS     r3,#2
        0x000026ec:    e021        !.      B        0x2732 ; pow + 246
        0x000026ee:    4ede        .N      LDR      r6,[pc,#888] ; [0x2a68] = 0x3ff00000
        0x000026f0:    42b0        .B      CMP      r0,r6
        0x000026f2:    db1e        ..      BLT      0x2732 ; pow + 246
        0x000026f4:    4ee0        .N      LDR      r6,[pc,#896] ; [0x2a78] = 0xfffffc01
        0x000026f6:    0d07        ..      LSRS     r7,r0,#20
        0x000026f8:    19be        ..      ADDS     r6,r7,r6
        0x000026fa:    2e14        ..      CMP      r6,#0x14
        0x000026fc:    dd09        ..      BLE      0x2712 ; pow + 214
        0x000026fe:    2734        4'      MOVS     r7,#0x34
        0x00002700:    1bbf        ..      SUBS     r7,r7,r6
        0x00002702:    9e03        ..      LDR      r6,[sp,#0xc]
        0x00002704:    40fe        .@      LSRS     r6,r6,r7
        0x00002706:    9601        ..      STR      r6,[sp,#4]
        0x00002708:    40be        .@      LSLS     r6,r6,r7
        0x0000270a:    9f03        ..      LDR      r7,[sp,#0xc]
        0x0000270c:    42be        .B      CMP      r6,r7
        0x0000270e:    d00b        ..      BEQ      0x2728 ; pow + 236
        0x00002710:    e00f        ..      B        0x2732 ; pow + 246
        0x00002712:    9f03        ..      LDR      r7,[sp,#0xc]
        0x00002714:    2f00        ./      CMP      r7,#0
        0x00002716:    d10c        ..      BNE      0x2732 ; pow + 246
        0x00002718:    2714        .'      MOVS     r7,#0x14
        0x0000271a:    1bbf        ..      SUBS     r7,r7,r6
        0x0000271c:    4606        .F      MOV      r6,r0
        0x0000271e:    40fe        .@      LSRS     r6,r6,r7
        0x00002720:    9601        ..      STR      r6,[sp,#4]
        0x00002722:    40be        .@      LSLS     r6,r6,r7
        0x00002724:    4286        .B      CMP      r6,r0
        0x00002726:    d104        ..      BNE      0x2732 ; pow + 246
        0x00002728:    9b01        ..      LDR      r3,[sp,#4]
        0x0000272a:    07de        ..      LSLS     r6,r3,#31
        0x0000272c:    0ff6        ..      LSRS     r6,r6,#31
        0x0000272e:    2302        .#      MOVS     r3,#2
        0x00002730:    1b9b        ..      SUBS     r3,r3,r6
        0x00002732:    460e        .F      MOV      r6,r1
        0x00002734:    4316        .C      ORRS     r6,r6,r2
        0x00002736:    d118        ..      BNE      0x276a ; pow + 302
        0x00002738:    2d00        .-      CMP      r5,#0
        0x0000273a:    da16        ..      BGE      0x276a ; pow + 302
        0x0000273c:    2c00        .,      CMP      r4,#0
        0x0000273e:    d003        ..      BEQ      0x2748 ; pow + 268
        0x00002740:    2b02        .+      CMP      r3,#2
        0x00002742:    d001        ..      BEQ      0x2748 ; pow + 268
        0x00002744:    2b01        .+      CMP      r3,#1
        0x00002746:    d006        ..      BEQ      0x2756 ; pow + 282
        0x00002748:    2002        .       MOVS     r0,#2
        0x0000274a:    f7fffb8d    ....    BL       __set_errno ; 0x1e68
        0x0000274e:    f7fffb4b    ..K.    BL       __mathlib_dbl_divzero ; 0x1de8
        0x00002752:    b01b        ..      ADD      sp,sp,#0x6c
        0x00002754:    bdf0        ..      POP      {r4-r7,pc}
        0x00002756:    2002        .       MOVS     r0,#2
        0x00002758:    f7fffb86    ....    BL       __set_errno ; 0x1e68
        0x0000275c:    f7fffb44    ..D.    BL       __mathlib_dbl_divzero ; 0x1de8
        0x00002760:    2201        ."      MOVS     r2,#1
        0x00002762:    07d2        ..      LSLS     r2,r2,#31
        0x00002764:    4051        Q@      EORS     r1,r1,r2
        0x00002766:    b01b        ..      ADD      sp,sp,#0x6c
        0x00002768:    bdf0        ..      POP      {r4-r7,pc}
        0x0000276a:    9e03        ..      LDR      r6,[sp,#0xc]
        0x0000276c:    2e00        ..      CMP      r6,#0
        0x0000276e:    d161        a.      BNE      0x2834 ; pow + 504
        0x00002770:    4ebf        .N      LDR      r6,[pc,#764] ; [0x2a70] = 0x7ff00000
        0x00002772:    42b0        .B      CMP      r0,r6
        0x00002774:    d120         .      BNE      0x27b8 ; pow + 380
        0x00002776:    48c1        .H      LDR      r0,[pc,#772] ; [0x2a7c] = 0xbff00000
        0x00002778:    4284        .B      CMP      r4,r0
        0x0000277a:    d101        ..      BNE      0x2780 ; pow + 324
        0x0000277c:    2a00        .*      CMP      r2,#0
        0x0000277e:    d008        ..      BEQ      0x2792 ; pow + 342
        0x00002780:    48b9        .H      LDR      r0,[pc,#740] ; [0x2a68] = 0x3ff00000
        0x00002782:    4281        .B      CMP      r1,r0
        0x00002784:    db09        ..      BLT      0x279a ; pow + 350
        0x00002786:    2d00        .-      CMP      r5,#0
        0x00002788:    db10        ..      BLT      0x27ac ; pow + 368
        0x0000278a:    9818        ..      LDR      r0,[sp,#0x60]
        0x0000278c:    4629        )F      MOV      r1,r5
        0x0000278e:    b01b        ..      ADD      sp,sp,#0x6c
        0x00002790:    bdf0        ..      POP      {r4-r7,pc}
        0x00002792:    2000        .       MOVS     r0,#0
        0x00002794:    49b4        .I      LDR      r1,[pc,#720] ; [0x2a68] = 0x3ff00000
        0x00002796:    b01b        ..      ADD      sp,sp,#0x6c
        0x00002798:    bdf0        ..      POP      {r4-r7,pc}
        0x0000279a:    2d00        .-      CMP      r5,#0
        0x0000279c:    da06        ..      BGE      0x27ac ; pow + 368
        0x0000279e:    2201        ."      MOVS     r2,#1
        0x000027a0:    4629        )F      MOV      r1,r5
        0x000027a2:    07d2        ..      LSLS     r2,r2,#31
        0x000027a4:    9818        ..      LDR      r0,[sp,#0x60]
        0x000027a6:    4051        Q@      EORS     r1,r1,r2
        0x000027a8:    b01b        ..      ADD      sp,sp,#0x6c
        0x000027aa:    bdf0        ..      POP      {r4-r7,pc}
        0x000027ac:    49b4        .I      LDR      r1,[pc,#720] ; [0x2a80] = 0x125e
        0x000027ae:    4479        yD      ADD      r1,r1,pc
        0x000027b0:    6808        .h      LDR      r0,[r1,#0]
        0x000027b2:    6849        Ih      LDR      r1,[r1,#4]
        0x000027b4:    b01b        ..      ADD      sp,sp,#0x6c
        0x000027b6:    bdf0        ..      POP      {r4-r7,pc}
        0x000027b8:    4fab        .O      LDR      r7,[pc,#684] ; [0x2a68] = 0x3ff00000
        0x000027ba:    42b8        .B      CMP      r0,r7
        0x000027bc:    d125        %.      BNE      0x280a ; pow + 462
        0x000027be:    2d00        .-      CMP      r5,#0
        0x000027c0:    da1f        ..      BGE      0x2802 ; pow + 454
        0x000027c2:    2900        .)      CMP      r1,#0
        0x000027c4:    d004        ..      BEQ      0x27d0 ; pow + 404
        0x000027c6:    42b1        .B      CMP      r1,r6
        0x000027c8:    d112        ..      BNE      0x27f0 ; pow + 436
        0x000027ca:    2a00        .*      CMP      r2,#0
        0x000027cc:    d009        ..      BEQ      0x27e2 ; pow + 422
        0x000027ce:    e018        ..      B        0x2802 ; pow + 454
        0x000027d0:    2a00        .*      CMP      r2,#0
        0x000027d2:    d172        r.      BNE      0x28ba ; pow + 638
        0x000027d4:    49a6        .I      LDR      r1,[pc,#664] ; [0x2a70] = 0x7ff00000
        0x000027d6:    0fe2        ..      LSRS     r2,r4,#31
        0x000027d8:    2000        .       MOVS     r0,#0
        0x000027da:    07d2        ..      LSLS     r2,r2,#31
        0x000027dc:    4311        .C      ORRS     r1,r1,r2
        0x000027de:    b01b        ..      ADD      sp,sp,#0x6c
        0x000027e0:    bdf0        ..      POP      {r4-r7,pc}
        0x000027e2:    2000        .       MOVS     r0,#0
        0x000027e4:    0fe2        ..      LSRS     r2,r4,#31
        0x000027e6:    4601        .F      MOV      r1,r0
        0x000027e8:    07d2        ..      LSLS     r2,r2,#31
        0x000027ea:    4311        .C      ORRS     r1,r1,r2
        0x000027ec:    b01b        ..      ADD      sp,sp,#0x6c
        0x000027ee:    bdf0        ..      POP      {r4-r7,pc}
        0x000027f0:    42b1        .B      CMP      r1,r6
        0x000027f2:    da06        ..      BGE      0x2802 ; pow + 454
        0x000027f4:    4623        #F      MOV      r3,r4
        0x000027f6:    2000        .       MOVS     r0,#0
        0x000027f8:    4639        9F      MOV      r1,r7
        0x000027fa:    f7fdfdfd    ....    BL       __aeabi_ddiv ; 0x3f8
        0x000027fe:    b01b        ..      ADD      sp,sp,#0x6c
        0x00002800:    bdf0        ..      POP      {r4-r7,pc}
        0x00002802:    4610        .F      MOV      r0,r2
        0x00002804:    4621        !F      MOV      r1,r4
        0x00002806:    b01b        ..      ADD      sp,sp,#0x6c
        0x00002808:    bdf0        ..      POP      {r4-r7,pc}
        0x0000280a:    42b1        .B      CMP      r1,r6
        0x0000280c:    da12        ..      BGE      0x2834 ; pow + 504
        0x0000280e:    2601        .&      MOVS     r6,#1
        0x00002810:    07b6        ..      LSLS     r6,r6,#30
        0x00002812:    42b5        .B      CMP      r5,r6
        0x00002814:    d103        ..      BNE      0x281e ; pow + 482
        0x00002816:    4623        #F      MOV      r3,r4
        0x00002818:    4610        .F      MOV      r0,r2
        0x0000281a:    4619        .F      MOV      r1,r3
        0x0000281c:    e3fe        ..      B        0x301c ; pow + 2528
        0x0000281e:    4e99        .N      LDR      r6,[pc,#612] ; [0x2a84] = 0x3fe00000
        0x00002820:    42b5        .B      CMP      r5,r6
        0x00002822:    d107        ..      BNE      0x2834 ; pow + 504
        0x00002824:    1e26        &.      SUBS     r6,r4,#0
        0x00002826:    db05        ..      BLT      0x2834 ; pow + 504
        0x00002828:    4610        .F      MOV      r0,r2
        0x0000282a:    4631        1F      MOV      r1,r6
        0x0000282c:    f000fc3c    ..<.    BL       sqrt ; 0x30a8
        0x00002830:    b01b        ..      ADD      sp,sp,#0x6c
        0x00002832:    bdf0        ..      POP      {r4-r7,pc}
        0x00002834:    0067        g.      LSLS     r7,r4,#1
        0x00002836:    087f        ..      LSRS     r7,r7,#1
        0x00002838:    4616        .F      MOV      r6,r2
        0x0000283a:    2a00        .*      CMP      r2,#0
        0x0000283c:    d140        @.      BNE      0x28c0 ; pow + 644
        0x0000283e:    2900        .)      CMP      r1,#0
        0x00002840:    d00a        ..      BEQ      0x2858 ; pow + 540
        0x00002842:    4a8b        .J      LDR      r2,[pc,#556] ; [0x2a70] = 0x7ff00000
        0x00002844:    4291        .B      CMP      r1,r2
        0x00002846:    d129        ).      BNE      0x289c ; pow + 608
        0x00002848:    2c00        .,      CMP      r4,#0
        0x0000284a:    dd0e        ..      BLE      0x286a ; pow + 558
        0x0000284c:    2d00        .-      CMP      r5,#0
        0x0000284e:    db1c        ..      BLT      0x288a ; pow + 590
        0x00002850:    2000        .       MOVS     r0,#0
        0x00002852:    4611        .F      MOV      r1,r2
        0x00002854:    b01b        ..      ADD      sp,sp,#0x6c
        0x00002856:    bdf0        ..      POP      {r4-r7,pc}
        0x00002858:    2b02        .+      CMP      r3,#2
        0x0000285a:    d016        ..      BEQ      0x288a ; pow + 590
        0x0000285c:    2c00        .,      CMP      r4,#0
        0x0000285e:    d014        ..      BEQ      0x288a ; pow + 590
        0x00002860:    2b01        .+      CMP      r3,#1
        0x00002862:    d112        ..      BNE      0x288a ; pow + 590
        0x00002864:    2c00        .,      CMP      r4,#0
        0x00002866:    db14        ..      BLT      0x2892 ; pow + 598
        0x00002868:    e00f        ..      B        0x288a ; pow + 590
        0x0000286a:    2c00        .,      CMP      r4,#0
        0x0000286c:    da28        (.      BGE      0x28c0 ; pow + 644
        0x0000286e:    2d00        .-      CMP      r5,#0
        0x00002870:    db09        ..      BLT      0x2886 ; pow + 586
        0x00002872:    2b01        .+      CMP      r3,#1
        0x00002874:    d003        ..      BEQ      0x287e ; pow + 578
        0x00002876:    2000        .       MOVS     r0,#0
        0x00002878:    497d        }I      LDR      r1,[pc,#500] ; [0x2a70] = 0x7ff00000
        0x0000287a:    b01b        ..      ADD      sp,sp,#0x6c
        0x0000287c:    bdf0        ..      POP      {r4-r7,pc}
        0x0000287e:    2000        .       MOVS     r0,#0
        0x00002880:    4981        .I      LDR      r1,[pc,#516] ; [0x2a88] = 0xfff00000
        0x00002882:    b01b        ..      ADD      sp,sp,#0x6c
        0x00002884:    bdf0        ..      POP      {r4-r7,pc}
        0x00002886:    2b01        .+      CMP      r3,#1
        0x00002888:    d003        ..      BEQ      0x2892 ; pow + 598
        0x0000288a:    2000        .       MOVS     r0,#0
        0x0000288c:    4601        .F      MOV      r1,r0
        0x0000288e:    b01b        ..      ADD      sp,sp,#0x6c
        0x00002890:    bdf0        ..      POP      {r4-r7,pc}
        0x00002892:    2000        .       MOVS     r0,#0
        0x00002894:    2101        .!      MOVS     r1,#1
        0x00002896:    07c9        ..      LSLS     r1,r1,#31
        0x00002898:    b01b        ..      ADD      sp,sp,#0x6c
        0x0000289a:    bdf0        ..      POP      {r4-r7,pc}
        0x0000289c:    4a72        rJ      LDR      r2,[pc,#456] ; [0x2a68] = 0x3ff00000
        0x0000289e:    4291        .B      CMP      r1,r2
        0x000028a0:    d10e        ..      BNE      0x28c0 ; pow + 644
        0x000028a2:    2c00        .,      CMP      r4,#0
        0x000028a4:    da01        ..      BGE      0x28aa ; pow + 622
        0x000028a6:    2b00        .+      CMP      r3,#0
        0x000028a8:    d017        ..      BEQ      0x28da ; pow + 670
        0x000028aa:    2b02        .+      CMP      r3,#2
        0x000028ac:    d006        ..      BEQ      0x28bc ; pow + 640
        0x000028ae:    2000        .       MOVS     r0,#0
        0x000028b0:    43c0        .C      MVNS     r0,r0
        0x000028b2:    f7fdfe19    ....    BL       __aeabi_i2d ; 0x4e8
        0x000028b6:    b01b        ..      ADD      sp,sp,#0x6c
        0x000028b8:    bdf0        ..      POP      {r4-r7,pc}
        0x000028ba:    e290        ..      B        0x2dde ; pow + 1954
        0x000028bc:    2001        .       MOVS     r0,#1
        0x000028be:    e7f8        ..      B        0x28b2 ; pow + 630
        0x000028c0:    17e2        ..      ASRS     r2,r4,#31
        0x000028c2:    1c52        R.      ADDS     r2,r2,#1
        0x000028c4:    4694        .F      MOV      r12,r2
        0x000028c6:    431a        .C      ORRS     r2,r2,r3
        0x000028c8:    d007        ..      BEQ      0x28da ; pow + 670
        0x000028ca:    2200        ."      MOVS     r2,#0
        0x000028cc:    9208        ..      STR      r2,[sp,#0x20]
        0x000028ce:    4c66        fL      LDR      r4,[pc,#408] ; [0x2a68] = 0x3ff00000
        0x000028d0:    4662        bF      MOV      r2,r12
        0x000028d2:    1e5b        [.      SUBS     r3,r3,#1
        0x000028d4:    431a        .C      ORRS     r2,r2,r3
        0x000028d6:    d007        ..      BEQ      0x28e8 ; pow + 684
        0x000028d8:    e009        ..      B        0x28ee ; pow + 690
        0x000028da:    2001        .       MOVS     r0,#1
        0x000028dc:    f7fffac4    ....    BL       __set_errno ; 0x1e68
        0x000028e0:    f7fffa95    ....    BL       __mathlib_dbl_invalid ; 0x1e0e
        0x000028e4:    b01b        ..      ADD      sp,sp,#0x6c
        0x000028e6:    bdf0        ..      POP      {r4-r7,pc}
        0x000028e8:    2200        ."      MOVS     r2,#0
        0x000028ea:    4c64        dL      LDR      r4,[pc,#400] ; [0x2a7c] = 0xbff00000
        0x000028ec:    9208        ..      STR      r2,[sp,#0x20]
        0x000028ee:    4a67        gJ      LDR      r2,[pc,#412] ; [0x2a8c] = 0x41e00000
        0x000028f0:    4290        .B      CMP      r0,r2
        0x000028f2:    dd7d        }.      BLE      0x29f0 ; pow + 948
        0x000028f4:    4b66        fK      LDR      r3,[pc,#408] ; [0x2a90] = 0x43f00000
        0x000028f6:    4a67        gJ      LDR      r2,[pc,#412] ; [0x2a94] = 0x3fefffff
        0x000028f8:    4298        .B      CMP      r0,r3
        0x000028fa:    dd1f        ..      BLE      0x293c ; pow + 768
        0x000028fc:    4291        .B      CMP      r1,r2
        0x000028fe:    dc02        ..      BGT      0x2906 ; pow + 714
        0x00002900:    2d00        .-      CMP      r5,#0
        0x00002902:    db05        ..      BLT      0x2910 ; pow + 724
        0x00002904:    e04d        M.      B        0x29a2 ; pow + 870
        0x00002906:    4858        XH      LDR      r0,[pc,#352] ; [0x2a68] = 0x3ff00000
        0x00002908:    4281        .B      CMP      r1,r0
        0x0000290a:    db17        ..      BLT      0x293c ; pow + 768
        0x0000290c:    2d00        .-      CMP      r5,#0
        0x0000290e:    dd48        H.      BLE      0x29a2 ; pow + 870
        0x00002910:    2002        .       MOVS     r0,#2
        0x00002912:    f7fffaa9    ....    BL       __set_errno ; 0x1e68
        0x00002916:    f7fffa83    ....    BL       __mathlib_dbl_overflow ; 0x1e20
        0x0000291a:    4605        .F      MOV      r5,r0
        0x0000291c:    460e        .F      MOV      r6,r1
        0x0000291e:    2200        ."      MOVS     r2,#0
        0x00002920:    4b53        SK      LDR      r3,[pc,#332] ; [0x2a70] = 0x7ff00000
        0x00002922:    4621        !F      MOV      r1,r4
        0x00002924:    9808        ..      LDR      r0,[sp,#0x20]
        0x00002926:    f7fdfcff    ....    BL       __aeabi_dmul ; 0x328
        0x0000292a:    4608        .F      MOV      r0,r1
        0x0000292c:    0071        q.      LSLS     r1,r6,#1
        0x0000292e:    0849        I.      LSRS     r1,r1,#1
        0x00002930:    0fc0        ..      LSRS     r0,r0,#31
        0x00002932:    07c0        ..      LSLS     r0,r0,#31
        0x00002934:    4301        .C      ORRS     r1,r1,r0
        0x00002936:    4628        (F      MOV      r0,r5
        0x00002938:    b01b        ..      ADD      sp,sp,#0x6c
        0x0000293a:    bdf0        ..      POP      {r4-r7,pc}
        0x0000293c:    4291        .B      CMP      r1,r2
        0x0000293e:    da15        ..      BGE      0x296c ; pow + 816
        0x00002940:    2d00        .-      CMP      r5,#0
        0x00002942:    da2e        ..      BGE      0x29a2 ; pow + 870
        0x00002944:    2002        .       MOVS     r0,#2
        0x00002946:    f7fffa8f    ....    BL       __set_errno ; 0x1e68
        0x0000294a:    f7fffa69    ..i.    BL       __mathlib_dbl_overflow ; 0x1e20
        0x0000294e:    4605        .F      MOV      r5,r0
        0x00002950:    460e        .F      MOV      r6,r1
        0x00002952:    2200        ."      MOVS     r2,#0
        0x00002954:    4b46        FK      LDR      r3,[pc,#280] ; [0x2a70] = 0x7ff00000
        0x00002956:    4621        !F      MOV      r1,r4
        0x00002958:    9808        ..      LDR      r0,[sp,#0x20]
        0x0000295a:    f7fdfce5    ....    BL       __aeabi_dmul ; 0x328
        0x0000295e:    0072        r.      LSLS     r2,r6,#1
        0x00002960:    0852        R.      LSRS     r2,r2,#1
        0x00002962:    0fc8        ..      LSRS     r0,r1,#31
        0x00002964:    07c0        ..      LSLS     r0,r0,#31
        0x00002966:    4302        .C      ORRS     r2,r2,r0
        0x00002968:    4611        .F      MOV      r1,r2
        0x0000296a:    e017        ..      B        0x299c ; pow + 864
        0x0000296c:    4b3e        >K      LDR      r3,[pc,#248] ; [0x2a68] = 0x3ff00000
        0x0000296e:    4299        .B      CMP      r1,r3
        0x00002970:    dd23        #.      BLE      0x29ba ; pow + 894
        0x00002972:    2d00        .-      CMP      r5,#0
        0x00002974:    dd15        ..      BLE      0x29a2 ; pow + 870
        0x00002976:    2002        .       MOVS     r0,#2
        0x00002978:    f7fffa76    ..v.    BL       __set_errno ; 0x1e68
        0x0000297c:    f7fffa50    ..P.    BL       __mathlib_dbl_overflow ; 0x1e20
        0x00002980:    4605        .F      MOV      r5,r0
        0x00002982:    460e        .F      MOV      r6,r1
        0x00002984:    2200        ."      MOVS     r2,#0
        0x00002986:    4b3a        :K      LDR      r3,[pc,#232] ; [0x2a70] = 0x7ff00000
        0x00002988:    4621        !F      MOV      r1,r4
        0x0000298a:    9808        ..      LDR      r0,[sp,#0x20]
        0x0000298c:    f7fdfccc    ....    BL       __aeabi_dmul ; 0x328
        0x00002990:    4608        .F      MOV      r0,r1
        0x00002992:    0071        q.      LSLS     r1,r6,#1
        0x00002994:    0849        I.      LSRS     r1,r1,#1
        0x00002996:    0fc0        ..      LSRS     r0,r0,#31
        0x00002998:    07c0        ..      LSLS     r0,r0,#31
        0x0000299a:    4301        .C      ORRS     r1,r1,r0
        0x0000299c:    4628        (F      MOV      r0,r5
        0x0000299e:    b01b        ..      ADD      sp,sp,#0x6c
        0x000029a0:    bdf0        ..      POP      {r4-r7,pc}
        0x000029a2:    2002        .       MOVS     r0,#2
        0x000029a4:    f7fffa60    ..`.    BL       __set_errno ; 0x1e68
        0x000029a8:    f7fffa44    ..D.    BL       __mathlib_dbl_underflow ; 0x1e34
        0x000029ac:    0049        I.      LSLS     r1,r1,#1
        0x000029ae:    0849        I.      LSRS     r1,r1,#1
        0x000029b0:    0fe2        ..      LSRS     r2,r4,#31
        0x000029b2:    07d2        ..      LSLS     r2,r2,#31
        0x000029b4:    4311        .C      ORRS     r1,r1,r2
        0x000029b6:    b01b        ..      ADD      sp,sp,#0x6c
        0x000029b8:    bdf0        ..      POP      {r4-r7,pc}
        0x000029ba:    2200        ."      MOVS     r2,#0
        0x000029bc:    4630        0F      MOV      r0,r6
        0x000029be:    4639        9F      MOV      r1,r7
        0x000029c0:    f7fdfca4    ....    BL       __aeabi_dsub ; 0x30c
        0x000029c4:    2201        ."      MOVS     r2,#1
        0x000029c6:    4605        .F      MOV      r5,r0
        0x000029c8:    460e        .F      MOV      r6,r1
        0x000029ca:    43d2        .C      MVNS     r2,r2
        0x000029cc:    f7fdfea9    ....    BL       __ARM_scalbn ; 0x722
        0x000029d0:    4a31        1J      LDR      r2,[pc,#196] ; [0x2a98] = 0x55555555
        0x000029d2:    4b32        2K      LDR      r3,[pc,#200] ; [0x2a9c] = 0x3fd55555
        0x000029d4:    f7fdfca0    ....    BL       __aeabi_drsub ; 0x318
        0x000029d8:    462a        *F      MOV      r2,r5
        0x000029da:    4633        3F      MOV      r3,r6
        0x000029dc:    f7fdfca4    ....    BL       __aeabi_dmul ; 0x328
        0x000029e0:    2200        ."      MOVS     r2,#0
        0x000029e2:    4b28        (K      LDR      r3,[pc,#160] ; [0x2a84] = 0x3fe00000
        0x000029e4:    f7fdfc98    ....    BL       __aeabi_drsub ; 0x318
        0x000029e8:    4607        .F      MOV      r7,r0
        0x000029ea:    462a        *F      MOV      r2,r5
        0x000029ec:    4633        3F      MOV      r3,r6
        0x000029ee:    e000        ..      B        0x29f2 ; pow + 950
        0x000029f0:    e064        d.      B        0x2abc ; pow + 1152
        0x000029f2:    9103        ..      STR      r1,[sp,#0xc]
        0x000029f4:    4610        .F      MOV      r0,r2
        0x000029f6:    4619        .F      MOV      r1,r3
        0x000029f8:    f7fdfc96    ....    BL       __aeabi_dmul ; 0x328
        0x000029fc:    463a        :F      MOV      r2,r7
        0x000029fe:    9b03        ..      LDR      r3,[sp,#0xc]
        0x00002a00:    f7fdfc92    ....    BL       __aeabi_dmul ; 0x328
        0x00002a04:    4607        .F      MOV      r7,r0
        0x00002a06:    2203        ."      MOVS     r2,#3
        0x00002a08:    9109        ..      STR      r1,[sp,#0x24]
        0x00002a0a:    0752        R.      LSLS     r2,r2,#29
        0x00002a0c:    4b24        $K      LDR      r3,[pc,#144] ; [0x2aa0] = 0x3ff71547
        0x00002a0e:    4628        (F      MOV      r0,r5
        0x00002a10:    4631        1F      MOV      r1,r6
        0x00002a12:    f7fdfc89    ....    BL       __aeabi_dmul ; 0x328
        0x00002a16:    9107        ..      STR      r1,[sp,#0x1c]
        0x00002a18:    900c        ..      STR      r0,[sp,#0x30]
        0x00002a1a:    4a22        "J      LDR      r2,[pc,#136] ; [0x2aa4] = 0x652b82fe
        0x00002a1c:    4b20         K      LDR      r3,[pc,#128] ; [0x2aa0] = 0x3ff71547
        0x00002a1e:    4638        8F      MOV      r0,r7
        0x00002a20:    9909        ..      LDR      r1,[sp,#0x24]
        0x00002a22:    f7fdfc81    ....    BL       __aeabi_dmul ; 0x328
        0x00002a26:    4607        .F      MOV      r7,r0
        0x00002a28:    9101        ..      STR      r1,[sp,#4]
        0x00002a2a:    4a1f        .J      LDR      r2,[pc,#124] ; [0x2aa8] = 0xf85ddf44
        0x00002a2c:    4b1f        .K      LDR      r3,[pc,#124] ; [0x2aac] = 0x3e54ae0b
        0x00002a2e:    4628        (F      MOV      r0,r5
        0x00002a30:    4631        1F      MOV      r1,r6
        0x00002a32:    f7fdfc79    ..y.    BL       __aeabi_dmul ; 0x328
        0x00002a36:    463a        :F      MOV      r2,r7
        0x00002a38:    9b01        ..      LDR      r3,[sp,#4]
        0x00002a3a:    f7fdfc67    ..g.    BL       __aeabi_dsub ; 0x30c
        0x00002a3e:    4607        .F      MOV      r7,r0
        0x00002a40:    460b        .F      MOV      r3,r1
        0x00002a42:    4602        .F      MOV      r2,r0
        0x00002a44:    9109        ..      STR      r1,[sp,#0x24]
        0x00002a46:    9907        ..      LDR      r1,[sp,#0x1c]
        0x00002a48:    980c        ..      LDR      r0,[sp,#0x30]
        0x00002a4a:    f7fdfbbb    ....    BL       __aeabi_dadd ; 0x1c4
        0x00002a4e:    2500        .%      MOVS     r5,#0
        0x00002a50:    460e        .F      MOV      r6,r1
        0x00002a52:    4628        (F      MOV      r0,r5
        0x00002a54:    9b07        ..      LDR      r3,[sp,#0x1c]
        0x00002a56:    9a0c        ..      LDR      r2,[sp,#0x30]
        0x00002a58:    f7fdfc58    ..X.    BL       __aeabi_dsub ; 0x30c
        0x00002a5c:    463a        :F      MOV      r2,r7
        0x00002a5e:    e027        '.      B        0x2ab0 ; pow + 1140
    $d
        0x00002a60:    001fffff    ....    DCD    2097151
        0x00002a64:    000fffff    ....    DCD    1048575
        0x00002a68:    3ff00000    ...?    DCD    1072693248
        0x00002a6c:    ffe00000    ....    DCD    4292870144
        0x00002a70:    7ff00000    ....    DCD    2146435072
        0x00002a74:    43400000    ..@C    DCD    1128267776
        0x00002a78:    fffffc01    ....    DCD    4294966273
        0x00002a7c:    bff00000    ....    DCD    3220176896
        0x00002a80:    0000125e    ^...    DCD    4702
        0x00002a84:    3fe00000    ...?    DCD    1071644672
        0x00002a88:    fff00000    ....    DCD    4293918720
        0x00002a8c:    41e00000    ...A    DCD    1105199104
        0x00002a90:    43f00000    ...C    DCD    1139802112
        0x00002a94:    3fefffff    ...?    DCD    1072693247
        0x00002a98:    55555555    UUUU    DCD    1431655765
        0x00002a9c:    3fd55555    UU.?    DCD    1070945621
        0x00002aa0:    3ff71547    G..?    DCD    1073157447
        0x00002aa4:    652b82fe    ..+e    DCD    1697350398
        0x00002aa8:    f85ddf44    D.].    DCD    4166901572
        0x00002aac:    3e54ae0b    ..T>    DCD    1045736971
    $t
        0x00002ab0:    9b09        ..      LDR      r3,[sp,#0x24]
        0x00002ab2:    f7fdfc31    ..1.    BL       __aeabi_drsub ; 0x318
        0x00002ab6:    4602        .F      MOV      r2,r0
        0x00002ab8:    460b        .F      MOV      r3,r1
        0x00002aba:    e152        R.      B        0x2d62 ; pow + 1830
        0x00002abc:    2501        .%      MOVS     r5,#1
        0x00002abe:    2000        .       MOVS     r0,#0
        0x00002ac0:    052d        -.      LSLS     r5,r5,#20
        0x00002ac2:    42a9        .B      CMP      r1,r5
        0x00002ac4:    da07        ..      BGE      0x2ad6 ; pow + 1178
        0x00002ac6:    2235        5"      MOVS     r2,#0x35
        0x00002ac8:    4630        0F      MOV      r0,r6
        0x00002aca:    4639        9F      MOV      r1,r7
        0x00002acc:    f7fdfe29    ..).    BL       __ARM_scalbn ; 0x722
        0x00002ad0:    4606        .F      MOV      r6,r0
        0x00002ad2:    2034        4       MOVS     r0,#0x34
        0x00002ad4:    43c0        .C      MVNS     r0,r0
        0x00002ad6:    150a        ..      ASRS     r2,r1,#20
        0x00002ad8:    1812        ..      ADDS     r2,r2,r0
        0x00002ada:    48fe        .H      LDR      r0,[pc,#1016] ; [0x2ed4] = 0xfffffc01
        0x00002adc:    1810        ..      ADDS     r0,r2,r0
        0x00002ade:    9003        ..      STR      r0,[sp,#0xc]
        0x00002ae0:    0308        ..      LSLS     r0,r1,#12
        0x00002ae2:    49fd        .I      LDR      r1,[pc,#1012] ; [0x2ed8] = 0x3ff00000
        0x00002ae4:    0b00        ..      LSRS     r0,r0,#12
        0x00002ae6:    4301        .C      ORRS     r1,r1,r0
        0x00002ae8:    460f        .F      MOV      r7,r1
        0x00002aea:    49fc        .I      LDR      r1,[pc,#1008] ; [0x2edc] = 0x3988e
        0x00002aec:    4288        .B      CMP      r0,r1
        0x00002aee:    dc01        ..      BGT      0x2af4 ; pow + 1208
        0x00002af0:    2000        .       MOVS     r0,#0
        0x00002af2:    e003        ..      B        0x2afc ; pow + 1216
        0x00002af4:    49fa        .I      LDR      r1,[pc,#1000] ; [0x2ee0] = 0xbb67a
        0x00002af6:    4288        .B      CMP      r0,r1
        0x00002af8:    da02        ..      BGE      0x2b00 ; pow + 1220
        0x00002afa:    2001        .       MOVS     r0,#1
        0x00002afc:    9011        ..      STR      r0,[sp,#0x44]
        0x00002afe:    e005        ..      B        0x2b0c ; pow + 1232
        0x00002b00:    2000        .       MOVS     r0,#0
        0x00002b02:    9011        ..      STR      r0,[sp,#0x44]
        0x00002b04:    9803        ..      LDR      r0,[sp,#0xc]
        0x00002b06:    1c40        @.      ADDS     r0,r0,#1
        0x00002b08:    1b7f        ..      SUBS     r7,r7,r5
        0x00002b0a:    9003        ..      STR      r0,[sp,#0xc]
        0x00002b0c:    9811        ..      LDR      r0,[sp,#0x44]
        0x00002b0e:    9705        ..      STR      r7,[sp,#0x14]
        0x00002b10:    00c2        ..      LSLS     r2,r0,#3
        0x00002b12:    48f4        .H      LDR      r0,[pc,#976] ; [0x2ee4] = 0xe6e
        0x00002b14:    920f        ..      STR      r2,[sp,#0x3c]
        0x00002b16:    4478        xD      ADD      r0,r0,pc
        0x00002b18:    1880        ..      ADDS     r0,r0,r2
        0x00002b1a:    6843        Ch      LDR      r3,[r0,#4]
        0x00002b1c:    6802        .h      LDR      r2,[r0,#0]
        0x00002b1e:    4639        9F      MOV      r1,r7
        0x00002b20:    4630        0F      MOV      r0,r6
        0x00002b22:    930d        ..      STR      r3,[sp,#0x34]
        0x00002b24:    9202        ..      STR      r2,[sp,#8]
        0x00002b26:    f7fdfbf1    ....    BL       __aeabi_dsub ; 0x30c
        0x00002b2a:    9107        ..      STR      r1,[sp,#0x1c]
        0x00002b2c:    900c        ..      STR      r0,[sp,#0x30]
        0x00002b2e:    4630        0F      MOV      r0,r6
        0x00002b30:    9b0d        ..      LDR      r3,[sp,#0x34]
        0x00002b32:    9a02        ..      LDR      r2,[sp,#8]
        0x00002b34:    9905        ..      LDR      r1,[sp,#0x14]
        0x00002b36:    f7fdfb45    ..E.    BL       __aeabi_dadd ; 0x1c4
        0x00002b3a:    4602        .F      MOV      r2,r0
        0x00002b3c:    460b        .F      MOV      r3,r1
        0x00002b3e:    2000        .       MOVS     r0,#0
        0x00002b40:    49e5        .I      LDR      r1,[pc,#916] ; [0x2ed8] = 0x3ff00000
        0x00002b42:    f7fdfc59    ..Y.    BL       __aeabi_ddiv ; 0x3f8
        0x00002b46:    9109        ..      STR      r1,[sp,#0x24]
        0x00002b48:    9004        ..      STR      r0,[sp,#0x10]
        0x00002b4a:    9b07        ..      LDR      r3,[sp,#0x1c]
        0x00002b4c:    9a0c        ..      LDR      r2,[sp,#0x30]
        0x00002b4e:    f7fdfbeb    ....    BL       __aeabi_dmul ; 0x328
        0x00002b52:    9012        ..      STR      r0,[sp,#0x48]
        0x00002b54:    2000        .       MOVS     r0,#0
        0x00002b56:    9010        ..      STR      r0,[sp,#0x40]
        0x00002b58:    48e3        .H      LDR      r0,[pc,#908] ; [0x2ee8] = 0xeb0
        0x00002b5a:    460d        .F      MOV      r5,r1
        0x00002b5c:    4478        xD      ADD      r0,r0,pc
        0x00002b5e:    6800        .h      LDR      r0,[r0,#0]
        0x00002b60:    900e        ..      STR      r0,[sp,#0x38]
        0x00002b62:    2101        .!      MOVS     r1,#1
        0x00002b64:    1078        x.      ASRS     r0,r7,#1
        0x00002b66:    0749        I.      LSLS     r1,r1,#29
        0x00002b68:    4308        .C      ORRS     r0,r0,r1
        0x00002b6a:    9911        ..      LDR      r1,[sp,#0x44]
        0x00002b6c:    9b0d        ..      LDR      r3,[sp,#0x34]
        0x00002b6e:    0489        ..      LSLS     r1,r1,#18
        0x00002b70:    1840        @.      ADDS     r0,r0,r1
        0x00002b72:    2101        .!      MOVS     r1,#1
        0x00002b74:    04c9        ..      LSLS     r1,r1,#19
        0x00002b76:    1847        G.      ADDS     r7,r0,r1
        0x00002b78:    4639        9F      MOV      r1,r7
        0x00002b7a:    9a02        ..      LDR      r2,[sp,#8]
        0x00002b7c:    980e        ..      LDR      r0,[sp,#0x38]
        0x00002b7e:    f7fdfbc5    ....    BL       __aeabi_dsub ; 0x30c
        0x00002b82:    4632        2F      MOV      r2,r6
        0x00002b84:    9b05        ..      LDR      r3,[sp,#0x14]
        0x00002b86:    f7fdfbc7    ....    BL       __aeabi_drsub ; 0x318
        0x00002b8a:    4602        .F      MOV      r2,r0
        0x00002b8c:    460b        .F      MOV      r3,r1
        0x00002b8e:    4629        )F      MOV      r1,r5
        0x00002b90:    9810        ..      LDR      r0,[sp,#0x40]
        0x00002b92:    f7fdfbc9    ....    BL       __aeabi_dmul ; 0x328
        0x00002b96:    4606        .F      MOV      r6,r0
        0x00002b98:    9102        ..      STR      r1,[sp,#8]
        0x00002b9a:    463b        ;F      MOV      r3,r7
        0x00002b9c:    4629        )F      MOV      r1,r5
        0x00002b9e:    9a0e        ..      LDR      r2,[sp,#0x38]
        0x00002ba0:    9810        ..      LDR      r0,[sp,#0x40]
        0x00002ba2:    f7fdfbc1    ....    BL       __aeabi_dmul ; 0x328
        0x00002ba6:    9b07        ..      LDR      r3,[sp,#0x1c]
        0x00002ba8:    9a0c        ..      LDR      r2,[sp,#0x30]
        0x00002baa:    f7fdfbb5    ....    BL       __aeabi_drsub ; 0x318
        0x00002bae:    4632        2F      MOV      r2,r6
        0x00002bb0:    9b02        ..      LDR      r3,[sp,#8]
        0x00002bb2:    f7fdfbab    ....    BL       __aeabi_dsub ; 0x30c
        0x00002bb6:    9b09        ..      LDR      r3,[sp,#0x24]
        0x00002bb8:    9a04        ..      LDR      r2,[sp,#0x10]
        0x00002bba:    f7fdfbb5    ....    BL       __aeabi_dmul ; 0x328
        0x00002bbe:    9105        ..      STR      r1,[sp,#0x14]
        0x00002bc0:    9a12        ..      LDR      r2,[sp,#0x48]
        0x00002bc2:    900a        ..      STR      r0,[sp,#0x28]
        0x00002bc4:    462b        +F      MOV      r3,r5
        0x00002bc6:    4610        .F      MOV      r0,r2
        0x00002bc8:    4619        .F      MOV      r1,r3
        0x00002bca:    f7fdfbad    ....    BL       __aeabi_dmul ; 0x328
        0x00002bce:    4606        .F      MOV      r6,r0
        0x00002bd0:    4602        .F      MOV      r2,r0
        0x00002bd2:    48c6        .H      LDR      r0,[pc,#792] ; [0x2eec] = 0xdda
        0x00002bd4:    460f        .F      MOV      r7,r1
        0x00002bd6:    460b        .F      MOV      r3,r1
        0x00002bd8:    2106        .!      MOVS     r1,#6
        0x00002bda:    4478        xD      ADD      r0,r0,pc
        0x00002bdc:    f7fff8ae    ....    BL       __kernel_poly ; 0x1d3c
        0x00002be0:    4632        2F      MOV      r2,r6
        0x00002be2:    463b        ;F      MOV      r3,r7
        0x00002be4:    9100        ..      STR      r1,[sp,#0]
        0x00002be6:    9004        ..      STR      r0,[sp,#0x10]
        0x00002be8:    4610        .F      MOV      r0,r2
        0x00002bea:    4619        .F      MOV      r1,r3
        0x00002bec:    f7fdfb9c    ....    BL       __aeabi_dmul ; 0x328
        0x00002bf0:    9b00        ..      LDR      r3,[sp,#0]
        0x00002bf2:    9a04        ..      LDR      r2,[sp,#0x10]
        0x00002bf4:    f7fdfb98    ....    BL       __aeabi_dmul ; 0x328
        0x00002bf8:    4606        .F      MOV      r6,r0
        0x00002bfa:    460f        .F      MOV      r7,r1
        0x00002bfc:    462b        +F      MOV      r3,r5
        0x00002bfe:    4619        .F      MOV      r1,r3
        0x00002c00:    9a12        ..      LDR      r2,[sp,#0x48]
        0x00002c02:    9810        ..      LDR      r0,[sp,#0x40]
        0x00002c04:    f7fdfade    ....    BL       __aeabi_dadd ; 0x1c4
        0x00002c08:    9b05        ..      LDR      r3,[sp,#0x14]
        0x00002c0a:    9a0a        ..      LDR      r2,[sp,#0x28]
        0x00002c0c:    f7fdfb8c    ....    BL       __aeabi_dmul ; 0x328
        0x00002c10:    4632        2F      MOV      r2,r6
        0x00002c12:    463b        ;F      MOV      r3,r7
        0x00002c14:    f7fdfad6    ....    BL       __aeabi_dadd ; 0x1c4
        0x00002c18:    9a10        ..      LDR      r2,[sp,#0x40]
        0x00002c1a:    9107        ..      STR      r1,[sp,#0x1c]
        0x00002c1c:    9004        ..      STR      r0,[sp,#0x10]
        0x00002c1e:    462b        +F      MOV      r3,r5
        0x00002c20:    4610        .F      MOV      r0,r2
        0x00002c22:    4619        .F      MOV      r1,r3
        0x00002c24:    f7fdfb80    ....    BL       __aeabi_dmul ; 0x328
        0x00002c28:    4eb1        .N      LDR      r6,[pc,#708] ; [0x2ef0] = 0x40080000
        0x00002c2a:    2200        ."      MOVS     r2,#0
        0x00002c2c:    4633        3F      MOV      r3,r6
        0x00002c2e:    9109        ..      STR      r1,[sp,#0x24]
        0x00002c30:    9002        ..      STR      r0,[sp,#8]
        0x00002c32:    f7fdfac7    ....    BL       __aeabi_dadd ; 0x1c4
        0x00002c36:    9b07        ..      LDR      r3,[sp,#0x1c]
        0x00002c38:    9a04        ..      LDR      r2,[sp,#0x10]
        0x00002c3a:    f7fdfac3    ....    BL       __aeabi_dadd ; 0x1c4
        0x00002c3e:    2000        .       MOVS     r0,#0
        0x00002c40:    4607        .F      MOV      r7,r0
        0x00002c42:    4602        .F      MOV      r2,r0
        0x00002c44:    4633        3F      MOV      r3,r6
        0x00002c46:    9100        ..      STR      r1,[sp,#0]
        0x00002c48:    f7fdfb60    ..`.    BL       __aeabi_dsub ; 0x30c
        0x00002c4c:    9b09        ..      LDR      r3,[sp,#0x24]
        0x00002c4e:    9a02        ..      LDR      r2,[sp,#8]
        0x00002c50:    f7fdfb5c    ..\.    BL       __aeabi_dsub ; 0x30c
        0x00002c54:    9b07        ..      LDR      r3,[sp,#0x1c]
        0x00002c56:    9a04        ..      LDR      r2,[sp,#0x10]
        0x00002c58:    f7fdfb5e    ..^.    BL       __aeabi_drsub ; 0x318
        0x00002c5c:    4606        .F      MOV      r6,r0
        0x00002c5e:    910d        ..      STR      r1,[sp,#0x34]
        0x00002c60:    463a        :F      MOV      r2,r7
        0x00002c62:    4629        )F      MOV      r1,r5
        0x00002c64:    9b00        ..      LDR      r3,[sp,#0]
        0x00002c66:    9810        ..      LDR      r0,[sp,#0x40]
        0x00002c68:    f7fdfb5e    ..^.    BL       __aeabi_dmul ; 0x328
        0x00002c6c:    9107        ..      STR      r1,[sp,#0x1c]
        0x00002c6e:    900c        ..      STR      r0,[sp,#0x30]
        0x00002c70:    462b        +F      MOV      r3,r5
        0x00002c72:    4630        0F      MOV      r0,r6
        0x00002c74:    9a12        ..      LDR      r2,[sp,#0x48]
        0x00002c76:    990d        ..      LDR      r1,[sp,#0x34]
        0x00002c78:    f7fdfb56    ..V.    BL       __aeabi_dmul ; 0x328
        0x00002c7c:    4605        .F      MOV      r5,r0
        0x00002c7e:    460e        .F      MOV      r6,r1
        0x00002c80:    463a        :F      MOV      r2,r7
        0x00002c82:    9b00        ..      LDR      r3,[sp,#0]
        0x00002c84:    9905        ..      LDR      r1,[sp,#0x14]
        0x00002c86:    980a        ..      LDR      r0,[sp,#0x28]
        0x00002c88:    f7fdfb4e    ..N.    BL       __aeabi_dmul ; 0x328
        0x00002c8c:    4633        3F      MOV      r3,r6
        0x00002c8e:    462a        *F      MOV      r2,r5
        0x00002c90:    f7fdfa98    ....    BL       __aeabi_dadd ; 0x1c4
        0x00002c94:    4602        .F      MOV      r2,r0
        0x00002c96:    460b        .F      MOV      r3,r1
        0x00002c98:    4607        .F      MOV      r7,r0
        0x00002c9a:    9109        ..      STR      r1,[sp,#0x24]
        0x00002c9c:    9907        ..      LDR      r1,[sp,#0x1c]
        0x00002c9e:    980c        ..      LDR      r0,[sp,#0x30]
        0x00002ca0:    f7fdfa90    ....    BL       __aeabi_dadd ; 0x1c4
        0x00002ca4:    2500        .%      MOVS     r5,#0
        0x00002ca6:    460e        .F      MOV      r6,r1
        0x00002ca8:    4628        (F      MOV      r0,r5
        0x00002caa:    9b07        ..      LDR      r3,[sp,#0x1c]
        0x00002cac:    9a0c        ..      LDR      r2,[sp,#0x30]
        0x00002cae:    f7fdfb2d    ..-.    BL       __aeabi_dsub ; 0x30c
        0x00002cb2:    463a        :F      MOV      r2,r7
        0x00002cb4:    9b09        ..      LDR      r3,[sp,#0x24]
        0x00002cb6:    f7fdfb2f    ../.    BL       __aeabi_drsub ; 0x318
        0x00002cba:    4607        .F      MOV      r7,r0
        0x00002cbc:    2207        ."      MOVS     r2,#7
        0x00002cbe:    9109        ..      STR      r1,[sp,#0x24]
        0x00002cc0:    0752        R.      LSLS     r2,r2,#29
        0x00002cc2:    4b8c        .K      LDR      r3,[pc,#560] ; [0x2ef4] = 0x3feec709
        0x00002cc4:    4631        1F      MOV      r1,r6
        0x00002cc6:    4628        (F      MOV      r0,r5
        0x00002cc8:    f7fdfb2e    ....    BL       __aeabi_dmul ; 0x328
        0x00002ccc:    9107        ..      STR      r1,[sp,#0x1c]
        0x00002cce:    9000        ..      STR      r0,[sp,#0]
        0x00002cd0:    4a89        .J      LDR      r2,[pc,#548] ; [0x2ef8] = 0xdc3a03fd
        0x00002cd2:    4b88        .K      LDR      r3,[pc,#544] ; [0x2ef4] = 0x3feec709
        0x00002cd4:    4638        8F      MOV      r0,r7
        0x00002cd6:    9909        ..      LDR      r1,[sp,#0x24]
        0x00002cd8:    f7fdfb26    ..&.    BL       __aeabi_dmul ; 0x328
        0x00002cdc:    4607        .F      MOV      r7,r0
        0x00002cde:    9101        ..      STR      r1,[sp,#4]
        0x00002ce0:    4a86        .J      LDR      r2,[pc,#536] ; [0x2efc] = 0x145b01f5
        0x00002ce2:    4b87        .K      LDR      r3,[pc,#540] ; [0x2f00] = 0xbe3e2fe0
        0x00002ce4:    4631        1F      MOV      r1,r6
        0x00002ce6:    4628        (F      MOV      r0,r5
        0x00002ce8:    f7fdfb1e    ....    BL       __aeabi_dmul ; 0x328
        0x00002cec:    463a        :F      MOV      r2,r7
        0x00002cee:    9b01        ..      LDR      r3,[sp,#4]
        0x00002cf0:    f7fdfa68    ..h.    BL       __aeabi_dadd ; 0x1c4
        0x00002cf4:    4b83        .K      LDR      r3,[pc,#524] ; [0x2f04] = 0xcae
        0x00002cf6:    447b        {D      ADD      r3,r3,pc
        0x00002cf8:    9a0f        ..      LDR      r2,[sp,#0x3c]
        0x00002cfa:    189b        ..      ADDS     r3,r3,r2
        0x00002cfc:    681a        .h      LDR      r2,[r3,#0]
        0x00002cfe:    685b        [h      LDR      r3,[r3,#4]
        0x00002d00:    f7fdfa60    ..`.    BL       __aeabi_dadd ; 0x1c4
        0x00002d04:    9002        ..      STR      r0,[sp,#8]
        0x00002d06:    9109        ..      STR      r1,[sp,#0x24]
        0x00002d08:    9803        ..      LDR      r0,[sp,#0xc]
        0x00002d0a:    f7fdfbed    ....    BL       __aeabi_i2d ; 0x4e8
        0x00002d0e:    9105        ..      STR      r1,[sp,#0x14]
        0x00002d10:    9004        ..      STR      r0,[sp,#0x10]
        0x00002d12:    9b09        ..      LDR      r3,[sp,#0x24]
        0x00002d14:    9a02        ..      LDR      r2,[sp,#8]
        0x00002d16:    9907        ..      LDR      r1,[sp,#0x1c]
        0x00002d18:    9800        ..      LDR      r0,[sp,#0]
        0x00002d1a:    f7fdfa53    ..S.    BL       __aeabi_dadd ; 0x1c4
        0x00002d1e:    4b7a        zK      LDR      r3,[pc,#488] ; [0x2f08] = 0xc74
        0x00002d20:    447b        {D      ADD      r3,r3,pc
        0x00002d22:    9a0f        ..      LDR      r2,[sp,#0x3c]
        0x00002d24:    189b        ..      ADDS     r3,r3,r2
        0x00002d26:    681a        .h      LDR      r2,[r3,#0]
        0x00002d28:    685b        [h      LDR      r3,[r3,#4]
        0x00002d2a:    4617        .F      MOV      r7,r2
        0x00002d2c:    9303        ..      STR      r3,[sp,#0xc]
        0x00002d2e:    f7fdfa49    ..I.    BL       __aeabi_dadd ; 0x1c4
        0x00002d32:    9b05        ..      LDR      r3,[sp,#0x14]
        0x00002d34:    9a04        ..      LDR      r2,[sp,#0x10]
        0x00002d36:    f7fdfa45    ..E.    BL       __aeabi_dadd ; 0x1c4
        0x00002d3a:    460e        .F      MOV      r6,r1
        0x00002d3c:    4628        (F      MOV      r0,r5
        0x00002d3e:    9b05        ..      LDR      r3,[sp,#0x14]
        0x00002d40:    9a04        ..      LDR      r2,[sp,#0x10]
        0x00002d42:    f7fdfae3    ....    BL       __aeabi_dsub ; 0x30c
        0x00002d46:    463a        :F      MOV      r2,r7
        0x00002d48:    9b03        ..      LDR      r3,[sp,#0xc]
        0x00002d4a:    f7fdfadf    ....    BL       __aeabi_dsub ; 0x30c
        0x00002d4e:    9b07        ..      LDR      r3,[sp,#0x1c]
        0x00002d50:    9a00        ..      LDR      r2,[sp,#0]
        0x00002d52:    f7fdfadb    ....    BL       __aeabi_dsub ; 0x30c
        0x00002d56:    9b09        ..      LDR      r3,[sp,#0x24]
        0x00002d58:    9a02        ..      LDR      r2,[sp,#8]
        0x00002d5a:    f7fdfadd    ....    BL       __aeabi_drsub ; 0x318
        0x00002d5e:    4602        .F      MOV      r2,r0
        0x00002d60:    460b        .F      MOV      r3,r1
        0x00002d62:    9919        ..      LDR      r1,[sp,#0x64]
        0x00002d64:    2000        .       MOVS     r0,#0
        0x00002d66:    900c        ..      STR      r0,[sp,#0x30]
        0x00002d68:    460f        .F      MOV      r7,r1
        0x00002d6a:    9818        ..      LDR      r0,[sp,#0x60]
        0x00002d6c:    f7fdfadc    ....    BL       __aeabi_dmul ; 0x328
        0x00002d70:    9102        ..      STR      r1,[sp,#8]
        0x00002d72:    9004        ..      STR      r0,[sp,#0x10]
        0x00002d74:    463b        ;F      MOV      r3,r7
        0x00002d76:    9a0c        ..      LDR      r2,[sp,#0x30]
        0x00002d78:    9919        ..      LDR      r1,[sp,#0x64]
        0x00002d7a:    9818        ..      LDR      r0,[sp,#0x60]
        0x00002d7c:    f7fdfac6    ....    BL       __aeabi_dsub ; 0x30c
        0x00002d80:    462a        *F      MOV      r2,r5
        0x00002d82:    4633        3F      MOV      r3,r6
        0x00002d84:    f7fdfad0    ....    BL       __aeabi_dmul ; 0x328
        0x00002d88:    9b02        ..      LDR      r3,[sp,#8]
        0x00002d8a:    9a04        ..      LDR      r2,[sp,#0x10]
        0x00002d8c:    f7fdfa1a    ....    BL       __aeabi_dadd ; 0x1c4
        0x00002d90:    9109        ..      STR      r1,[sp,#0x24]
        0x00002d92:    900e        ..      STR      r0,[sp,#0x38]
        0x00002d94:    462a        *F      MOV      r2,r5
        0x00002d96:    4633        3F      MOV      r3,r6
        0x00002d98:    4639        9F      MOV      r1,r7
        0x00002d9a:    980c        ..      LDR      r0,[sp,#0x30]
        0x00002d9c:    f7fdfac4    ....    BL       __aeabi_dmul ; 0x328
        0x00002da0:    4606        .F      MOV      r6,r0
        0x00002da2:    460f        .F      MOV      r7,r1
        0x00002da4:    9b09        ..      LDR      r3,[sp,#0x24]
        0x00002da6:    9a0e        ..      LDR      r2,[sp,#0x38]
        0x00002da8:    f7fdfa0c    ....    BL       __aeabi_dadd ; 0x1c4
        0x00002dac:    4a57        WJ      LDR      r2,[pc,#348] ; [0x2f0c] = 0x40900000
        0x00002dae:    460d        .F      MOV      r5,r1
        0x00002db0:    4291        .B      CMP      r1,r2
        0x00002db2:    db20         .      BLT      0x2df6 ; pow + 1978
        0x00002db4:    4252        RB      RSBS     r2,r2,#0
        0x00002db6:    18aa        ..      ADDS     r2,r5,r2
        0x00002db8:    4302        .C      ORRS     r2,r2,r0
        0x00002dba:    d110        ..      BNE      0x2dde ; pow + 1954
        0x00002dbc:    4632        2F      MOV      r2,r6
        0x00002dbe:    463b        ;F      MOV      r3,r7
        0x00002dc0:    f7fdfaa4    ....    BL       __aeabi_dsub ; 0x30c
        0x00002dc4:    9004        ..      STR      r0,[sp,#0x10]
        0x00002dc6:    9103        ..      STR      r1,[sp,#0xc]
        0x00002dc8:    4a51        QJ      LDR      r2,[pc,#324] ; [0x2f10] = 0x652b82fe
        0x00002dca:    4b52        RK      LDR      r3,[pc,#328] ; [0x2f14] = 0x3c971547
        0x00002dcc:    9909        ..      LDR      r1,[sp,#0x24]
        0x00002dce:    980e        ..      LDR      r0,[sp,#0x38]
        0x00002dd0:    f7fdf9f8    ....    BL       __aeabi_dadd ; 0x1c4
        0x00002dd4:    9b03        ..      LDR      r3,[sp,#0xc]
        0x00002dd6:    9a04        ..      LDR      r2,[sp,#0x10]
        0x00002dd8:    f7fdfd0a    ....    BL       __aeabi_cdrcmple ; 0x7f0
        0x00002ddc:    d21e        ..      BCS      0x2e1c ; pow + 2016
        0x00002dde:    2002        .       MOVS     r0,#2
        0x00002de0:    f7fff842    ..B.    BL       __set_errno ; 0x1e68
        0x00002de4:    f7fff81c    ....    BL       __mathlib_dbl_overflow ; 0x1e20
        0x00002de8:    0049        I.      LSLS     r1,r1,#1
        0x00002dea:    0849        I.      LSRS     r1,r1,#1
        0x00002dec:    0fe2        ..      LSRS     r2,r4,#31
        0x00002dee:    07d2        ..      LSLS     r2,r2,#31
        0x00002df0:    4311        .C      ORRS     r1,r1,r2
        0x00002df2:    b01b        ..      ADD      sp,sp,#0x6c
        0x00002df4:    bdf0        ..      POP      {r4-r7,pc}
        0x00002df6:    006a        j.      LSLS     r2,r5,#1
        0x00002df8:    4b47        GK      LDR      r3,[pc,#284] ; [0x2f18] = 0x4090cc00
        0x00002dfa:    0852        R.      LSRS     r2,r2,#1
        0x00002dfc:    429a        .B      CMP      r2,r3
        0x00002dfe:    d30d        ..      BCC      0x2e1c ; pow + 2016
        0x00002e00:    4a46        FJ      LDR      r2,[pc,#280] ; [0x2f1c] = 0x3f6f3400
        0x00002e02:    18aa        ..      ADDS     r2,r5,r2
        0x00002e04:    4302        .C      ORRS     r2,r2,r0
        0x00002e06:    d000        ..      BEQ      0x2e0a ; pow + 1998
        0x00002e08:    e5cb        ..      B        0x29a2 ; pow + 870
        0x00002e0a:    4632        2F      MOV      r2,r6
        0x00002e0c:    463b        ;F      MOV      r3,r7
        0x00002e0e:    f7fdfa7d    ..}.    BL       __aeabi_dsub ; 0x30c
        0x00002e12:    9b09        ..      LDR      r3,[sp,#0x24]
        0x00002e14:    9a0e        ..      LDR      r2,[sp,#0x38]
        0x00002e16:    f7fdfceb    ....    BL       __aeabi_cdrcmple ; 0x7f0
        0x00002e1a:    d9f5        ..      BLS      0x2e08 ; pow + 1996
        0x00002e1c:    0068        h.      LSLS     r0,r5,#1
        0x00002e1e:    2300        .#      MOVS     r3,#0
        0x00002e20:    0840        @.      LSRS     r0,r0,#1
        0x00002e22:    492c        ,I      LDR      r1,[pc,#176] ; [0x2ed4] = 0xfffffc01
        0x00002e24:    9303        ..      STR      r3,[sp,#0xc]
        0x00002e26:    0d02        ..      LSRS     r2,r0,#20
        0x00002e28:    4b3d        =K      LDR      r3,[pc,#244] ; [0x2f20] = 0x3fe00000
        0x00002e2a:    1852        R.      ADDS     r2,r2,r1
        0x00002e2c:    4298        .B      CMP      r0,r3
        0x00002e2e:    dd23        #.      BLE      0x2e78 ; pow + 2108
        0x00002e30:    2001        .       MOVS     r0,#1
        0x00002e32:    0500        ..      LSLS     r0,r0,#20
        0x00002e34:    1c52        R.      ADDS     r2,r2,#1
        0x00002e36:    40d0        .@      LSRS     r0,r0,r2
        0x00002e38:    1942        B.      ADDS     r2,r0,r5
        0x00002e3a:    0050        P.      LSLS     r0,r2,#1
        0x00002e3c:    0d40        @.      LSRS     r0,r0,#21
        0x00002e3e:    1840        @.      ADDS     r0,r0,r1
        0x00002e40:    4938        8I      LDR      r1,[pc,#224] ; [0x2f24] = 0xbca
        0x00002e42:    4479        yD      ADD      r1,r1,pc
        0x00002e44:    6809        .h      LDR      r1,[r1,#0]
        0x00002e46:    4613        .F      MOV      r3,r2
        0x00002e48:    468c        .F      MOV      r12,r1
        0x00002e4a:    4937        7I      LDR      r1,[pc,#220] ; [0x2f28] = 0xfffff
        0x00002e4c:    40c1        .@      LSRS     r1,r1,r0
        0x00002e4e:    438b        .C      BICS     r3,r3,r1
        0x00002e50:    0312        ..      LSLS     r2,r2,#12
        0x00002e52:    2101        .!      MOVS     r1,#1
        0x00002e54:    0b12        ..      LSRS     r2,r2,#12
        0x00002e56:    0509        ..      LSLS     r1,r1,#20
        0x00002e58:    1851        Q.      ADDS     r1,r2,r1
        0x00002e5a:    2214        ."      MOVS     r2,#0x14
        0x00002e5c:    1a10        ..      SUBS     r0,r2,r0
        0x00002e5e:    40c1        .@      LSRS     r1,r1,r0
        0x00002e60:    9103        ..      STR      r1,[sp,#0xc]
        0x00002e62:    2d00        .-      CMP      r5,#0
        0x00002e64:    da01        ..      BGE      0x2e6a ; pow + 2094
        0x00002e66:    4248        HB      RSBS     r0,r1,#0
        0x00002e68:    9003        ..      STR      r0,[sp,#0xc]
        0x00002e6a:    4662        bF      MOV      r2,r12
        0x00002e6c:    4630        0F      MOV      r0,r6
        0x00002e6e:    4639        9F      MOV      r1,r7
        0x00002e70:    f7fdfa4c    ..L.    BL       __aeabi_dsub ; 0x30c
        0x00002e74:    4606        .F      MOV      r6,r0
        0x00002e76:    460f        .F      MOV      r7,r1
        0x00002e78:    4632        2F      MOV      r2,r6
        0x00002e7a:    463b        ;F      MOV      r3,r7
        0x00002e7c:    9909        ..      LDR      r1,[sp,#0x24]
        0x00002e7e:    980e        ..      LDR      r0,[sp,#0x38]
        0x00002e80:    f7fdf9a0    ....    BL       __aeabi_dadd ; 0x1c4
        0x00002e84:    2500        .%      MOVS     r5,#0
        0x00002e86:    462a        *F      MOV      r2,r5
        0x00002e88:    4b28        (K      LDR      r3,[pc,#160] ; [0x2f2c] = 0x3fe62e43
        0x00002e8a:    4628        (F      MOV      r0,r5
        0x00002e8c:    9105        ..      STR      r1,[sp,#0x14]
        0x00002e8e:    f7fdfa4b    ..K.    BL       __aeabi_dmul ; 0x328
        0x00002e92:    9107        ..      STR      r1,[sp,#0x1c]
        0x00002e94:    900c        ..      STR      r0,[sp,#0x30]
        0x00002e96:    4a26        &J      LDR      r2,[pc,#152] ; [0x2f30] = 0xca86c39
        0x00002e98:    4b26        &K      LDR      r3,[pc,#152] ; [0x2f34] = 0xbe205c61
        0x00002e9a:    4628        (F      MOV      r0,r5
        0x00002e9c:    9905        ..      LDR      r1,[sp,#0x14]
        0x00002e9e:    f7fdfa43    ..C.    BL       __aeabi_dmul ; 0x328
        0x00002ea2:    9100        ..      STR      r1,[sp,#0]
        0x00002ea4:    9002        ..      STR      r0,[sp,#8]
        0x00002ea6:    4632        2F      MOV      r2,r6
        0x00002ea8:    463b        ;F      MOV      r3,r7
        0x00002eaa:    4628        (F      MOV      r0,r5
        0x00002eac:    9905        ..      LDR      r1,[sp,#0x14]
        0x00002eae:    f7fdfa2d    ..-.    BL       __aeabi_dsub ; 0x30c
        0x00002eb2:    9b09        ..      LDR      r3,[sp,#0x24]
        0x00002eb4:    9a0e        ..      LDR      r2,[sp,#0x38]
        0x00002eb6:    f7fdfa2f    ../.    BL       __aeabi_drsub ; 0x318
        0x00002eba:    4a1f        .J      LDR      r2,[pc,#124] ; [0x2f38] = 0xfefa39ef
        0x00002ebc:    4b1f        .K      LDR      r3,[pc,#124] ; [0x2f3c] = 0x3fe62e42
        0x00002ebe:    f7fdfa33    ..3.    BL       __aeabi_dmul ; 0x328
        0x00002ec2:    9b00        ..      LDR      r3,[sp,#0]
        0x00002ec4:    9a02        ..      LDR      r2,[sp,#8]
        0x00002ec6:    f7fdf97d    ..}.    BL       __aeabi_dadd ; 0x1c4
        0x00002eca:    4607        .F      MOV      r7,r0
        0x00002ecc:    460b        .F      MOV      r3,r1
        0x00002ece:    4602        .F      MOV      r2,r0
        0x00002ed0:    9109        ..      STR      r1,[sp,#0x24]
        0x00002ed2:    e035        5.      B        0x2f40 ; pow + 2308
    $d
        0x00002ed4:    fffffc01    ....    DCD    4294966273
        0x00002ed8:    3ff00000    ...?    DCD    1072693248
        0x00002edc:    0003988e    ....    DCD    235662
        0x00002ee0:    000bb67a    z...    DCD    767610
        0x00002ee4:    00000e6e    n...    DCD    3694
        0x00002ee8:    00000eb0    ....    DCD    3760
        0x00002eec:    00000dda    ....    DCD    3546
        0x00002ef0:    40080000    ...@    DCD    1074266112
        0x00002ef4:    3feec709    ...?    DCD    1072613129
        0x00002ef8:    dc3a03fd    ..:.    DCD    3694789629
        0x00002efc:    145b01f5    ..[.    DCD    341508597
        0x00002f00:    be3e2fe0    ./>.    DCD    3191746528
        0x00002f04:    00000cae    ....    DCD    3246
        0x00002f08:    00000c74    t...    DCD    3188
        0x00002f0c:    40900000    ...@    DCD    1083179008
        0x00002f10:    652b82fe    ..+e    DCD    1697350398
        0x00002f14:    3c971547    G..<    DCD    1016534343
        0x00002f18:    4090cc00    ...@    DCD    1083231232
        0x00002f1c:    3f6f3400    .4o?    DCD    1064252416
        0x00002f20:    3fe00000    ...?    DCD    1071644672
        0x00002f24:    00000bca    ....    DCD    3018
        0x00002f28:    000fffff    ....    DCD    1048575
        0x00002f2c:    3fe62e43    C..?    DCD    1072049731
        0x00002f30:    0ca86c39    9l..    DCD    212364345
        0x00002f34:    be205c61    a\ .    DCD    3189791841
        0x00002f38:    fefa39ef    .9..    DCD    4277811695
        0x00002f3c:    3fe62e42    B..?    DCD    1072049730
    $t
        0x00002f40:    9907        ..      LDR      r1,[sp,#0x1c]
        0x00002f42:    980c        ..      LDR      r0,[sp,#0x30]
        0x00002f44:    f7fdf93e    ..>.    BL       __aeabi_dadd ; 0x1c4
        0x00002f48:    4605        .F      MOV      r5,r0
        0x00002f4a:    460e        .F      MOV      r6,r1
        0x00002f4c:    9b07        ..      LDR      r3,[sp,#0x1c]
        0x00002f4e:    9a0c        ..      LDR      r2,[sp,#0x30]
        0x00002f50:    f7fdf9dc    ....    BL       __aeabi_dsub ; 0x30c
        0x00002f54:    463a        :F      MOV      r2,r7
        0x00002f56:    9b09        ..      LDR      r3,[sp,#0x24]
        0x00002f58:    f7fdf9de    ....    BL       __aeabi_drsub ; 0x318
        0x00002f5c:    9109        ..      STR      r1,[sp,#0x24]
        0x00002f5e:    462a        *F      MOV      r2,r5
        0x00002f60:    4633        3F      MOV      r3,r6
        0x00002f62:    900e        ..      STR      r0,[sp,#0x38]
        0x00002f64:    4610        .F      MOV      r0,r2
        0x00002f66:    4619        .F      MOV      r1,r3
        0x00002f68:    f7fdf9de    ....    BL       __aeabi_dmul ; 0x328
        0x00002f6c:    4607        .F      MOV      r7,r0
        0x00002f6e:    4602        .F      MOV      r2,r0
        0x00002f70:    482f        /H      LDR      r0,[pc,#188] ; [0x3030] = 0xa6c
        0x00002f72:    460b        .F      MOV      r3,r1
        0x00002f74:    9105        ..      STR      r1,[sp,#0x14]
        0x00002f76:    2105        .!      MOVS     r1,#5
        0x00002f78:    4478        xD      ADD      r0,r0,pc
        0x00002f7a:    f7fefedf    ....    BL       __kernel_poly ; 0x1d3c
        0x00002f7e:    463a        :F      MOV      r2,r7
        0x00002f80:    9b05        ..      LDR      r3,[sp,#0x14]
        0x00002f82:    f7fdf9d1    ....    BL       __aeabi_dmul ; 0x328
        0x00002f86:    462a        *F      MOV      r2,r5
        0x00002f88:    4633        3F      MOV      r3,r6
        0x00002f8a:    f7fdf9c5    ....    BL       __aeabi_drsub ; 0x318
        0x00002f8e:    4607        .F      MOV      r7,r0
        0x00002f90:    9101        ..      STR      r1,[sp,#4]
        0x00002f92:    4628        (F      MOV      r0,r5
        0x00002f94:    4631        1F      MOV      r1,r6
        0x00002f96:    9b09        ..      LDR      r3,[sp,#0x24]
        0x00002f98:    9a0e        ..      LDR      r2,[sp,#0x38]
        0x00002f9a:    f7fdf9c5    ....    BL       __aeabi_dmul ; 0x328
        0x00002f9e:    9b09        ..      LDR      r3,[sp,#0x24]
        0x00002fa0:    9a0e        ..      LDR      r2,[sp,#0x38]
        0x00002fa2:    f7fdf90f    ....    BL       __aeabi_dadd ; 0x1c4
        0x00002fa6:    2301        .#      MOVS     r3,#1
        0x00002fa8:    9104        ..      STR      r1,[sp,#0x10]
        0x00002faa:    900c        ..      STR      r0,[sp,#0x30]
        0x00002fac:    2200        ."      MOVS     r2,#0
        0x00002fae:    079b        ..      LSLS     r3,r3,#30
        0x00002fb0:    4638        8F      MOV      r0,r7
        0x00002fb2:    9901        ..      LDR      r1,[sp,#4]
        0x00002fb4:    f7fdf9aa    ....    BL       __aeabi_dsub ; 0x30c
        0x00002fb8:    9105        ..      STR      r1,[sp,#0x14]
        0x00002fba:    900e        ..      STR      r0,[sp,#0x38]
        0x00002fbc:    463a        :F      MOV      r2,r7
        0x00002fbe:    4628        (F      MOV      r0,r5
        0x00002fc0:    4631        1F      MOV      r1,r6
        0x00002fc2:    9b01        ..      LDR      r3,[sp,#4]
        0x00002fc4:    f7fdf9b0    ....    BL       __aeabi_dmul ; 0x328
        0x00002fc8:    9b05        ..      LDR      r3,[sp,#0x14]
        0x00002fca:    9a0e        ..      LDR      r2,[sp,#0x38]
        0x00002fcc:    f7fdfa14    ....    BL       __aeabi_ddiv ; 0x3f8
        0x00002fd0:    9b04        ..      LDR      r3,[sp,#0x10]
        0x00002fd2:    9a0c        ..      LDR      r2,[sp,#0x30]
        0x00002fd4:    f7fdf99a    ....    BL       __aeabi_dsub ; 0x30c
        0x00002fd8:    462a        *F      MOV      r2,r5
        0x00002fda:    4633        3F      MOV      r3,r6
        0x00002fdc:    f7fdf996    ....    BL       __aeabi_dsub ; 0x30c
        0x00002fe0:    2200        ."      MOVS     r2,#0
        0x00002fe2:    4b14        .K      LDR      r3,[pc,#80] ; [0x3034] = 0x3ff00000
        0x00002fe4:    f7fdf998    ....    BL       __aeabi_drsub ; 0x318
        0x00002fe8:    4606        .F      MOV      r6,r0
        0x00002fea:    9803        ..      LDR      r0,[sp,#0xc]
        0x00002fec:    460d        .F      MOV      r5,r1
        0x00002fee:    0500        ..      LSLS     r0,r0,#20
        0x00002ff0:    1941        A.      ADDS     r1,r0,r5
        0x00002ff2:    1509        ..      ASRS     r1,r1,#20
        0x00002ff4:    2900        .)      CMP      r1,#0
        0x00002ff6:    dc12        ..      BGT      0x301e ; pow + 2530
        0x00002ff8:    4630        0F      MOV      r0,r6
        0x00002ffa:    4629        )F      MOV      r1,r5
        0x00002ffc:    9a03        ..      LDR      r2,[sp,#0xc]
        0x00002ffe:    f7fdfb90    ....    BL       __ARM_scalbn ; 0x722
        0x00003002:    f7fefe85    ....    BL       __ARM_fpclassify ; 0x1d10
        0x00003006:    2804        .(      CMP      r0,#4
        0x00003008:    d101        ..      BNE      0x300e ; pow + 2514
        0x0000300a:    f7feff13    ....    BL       __mathlib_dbl_underflow ; 0x1e34
        0x0000300e:    4630        0F      MOV      r0,r6
        0x00003010:    4629        )F      MOV      r1,r5
        0x00003012:    9a03        ..      LDR      r2,[sp,#0xc]
        0x00003014:    f7fdfb85    ....    BL       __ARM_scalbn ; 0x722
        0x00003018:    4606        .F      MOV      r6,r0
        0x0000301a:    e001        ..      B        0x3020 ; pow + 2532
        0x0000301c:    e004        ..      B        0x3028 ; pow + 2540
        0x0000301e:    1829        ).      ADDS     r1,r5,r0
        0x00003020:    460b        .F      MOV      r3,r1
        0x00003022:    4632        2F      MOV      r2,r6
        0x00003024:    4621        !F      MOV      r1,r4
        0x00003026:    9808        ..      LDR      r0,[sp,#0x20]
        0x00003028:    f7fdf97e    ..~.    BL       __aeabi_dmul ; 0x328
        0x0000302c:    b01b        ..      ADD      sp,sp,#0x6c
        0x0000302e:    bdf0        ..      POP      {r4-r7,pc}
    $d
        0x00003030:    00000a6c    l...    DCD    2668
        0x00003034:    3ff00000    ...?    DCD    1072693248
    $t
    i.print_C
    print_C
        0x00003038:    b5fe        ..      PUSH     {r1-r7,lr}
        0x0000303a:    0040        @.      LSLS     r0,r0,#1
        0x0000303c:    9002        ..      STR      r0,[sp,#8]
        0x0000303e:    00c8        ..      LSLS     r0,r1,#3
        0x00003040:    9001        ..      STR      r0,[sp,#4]
        0x00003042:    0110        ..      LSLS     r0,r2,#4
        0x00003044:    38ff        .8      SUBS     r0,r0,#0xff
        0x00003046:    2500        .%      MOVS     r5,#0
        0x00003048:    38ff        .8      SUBS     r0,r0,#0xff
        0x0000304a:    3802        .8      SUBS     r0,#2
        0x0000304c:    4f0c        .O      LDR      r7,[pc,#48] ; [0x3080] = 0x3120
        0x0000304e:    9000        ..      STR      r0,[sp,#0]
        0x00003050:    9802        ..      LDR      r0,[sp,#8]
        0x00003052:    1940        @.      ADDS     r0,r0,r5
        0x00003054:    b2c1        ..      UXTB     r1,r0
        0x00003056:    9801        ..      LDR      r0,[sp,#4]
        0x00003058:    b2c0        ..      UXTB     r0,r0
        0x0000305a:    f7fff9a0    ....    BL       lcdSetAddr ; 0x239e
        0x0000305e:    9900        ..      LDR      r1,[sp,#0]
        0x00003060:    2400        .$      MOVS     r4,#0
        0x00003062:    00e8        ..      LSLS     r0,r5,#3
        0x00003064:    180e        ..      ADDS     r6,r1,r0
        0x00003066:    1930        0.      ADDS     r0,r6,r4
        0x00003068:    5c38        8\      LDRB     r0,[r7,r0]
        0x0000306a:    f7fff9b5    ....    BL       lcdWriteData ; 0x23d8
        0x0000306e:    1c64        d.      ADDS     r4,r4,#1
        0x00003070:    b2e4        ..      UXTB     r4,r4
        0x00003072:    2c08        .,      CMP      r4,#8
        0x00003074:    d3f7        ..      BCC      0x3066 ; print_C + 46
        0x00003076:    1c6d        m.      ADDS     r5,r5,#1
        0x00003078:    b2ed        ..      UXTB     r5,r5
        0x0000307a:    2d02        .-      CMP      r5,#2
        0x0000307c:    d3e8        ..      BCC      0x3050 ; print_C + 24
        0x0000307e:    bdfe        ..      POP      {r1-r7,pc}
    $d
        0x00003080:    00003120     1..    DCD    12576
    $t
    i.print_Line
    print_Line
        0x00003084:    b570        p.      PUSH     {r4-r6,lr}
        0x00003086:    460d        .F      MOV      r5,r1
        0x00003088:    4606        .F      MOV      r6,r0
        0x0000308a:    2400        .$      MOVS     r4,#0
        0x0000308c:    e006        ..      B        0x309c ; print_Line + 24
        0x0000308e:    5d2a        *]      LDRB     r2,[r5,r4]
        0x00003090:    4621        !F      MOV      r1,r4
        0x00003092:    4630        0F      MOV      r0,r6
        0x00003094:    f7ffffd0    ....    BL       print_C ; 0x3038
        0x00003098:    1c64        d.      ADDS     r4,r4,#1
        0x0000309a:    b2e4        ..      UXTB     r4,r4
        0x0000309c:    4628        (F      MOV      r0,r5
        0x0000309e:    f7fdf889    ....    BL       strlen ; 0x1b4
        0x000030a2:    42a0        .B      CMP      r0,r4
        0x000030a4:    d8f3        ..      BHI      0x308e ; print_Line + 10
        0x000030a6:    bd70        p.      POP      {r4-r6,pc}
    i.sqrt
    sqrt
        0x000030a8:    b5f8        ..      PUSH     {r3-r7,lr}
        0x000030aa:    4606        .F      MOV      r6,r0
        0x000030ac:    460c        .F      MOV      r4,r1
        0x000030ae:    f7fdfb4e    ..N.    BL       _dsqrt ; 0x74e
        0x000030b2:    1e05        ..      SUBS     r5,r0,#0
        0x000030b4:    460f        .F      MOV      r7,r1
        0x000030b6:    d000        ..      BEQ      0x30ba ; sqrt + 18
        0x000030b8:    2001        .       MOVS     r0,#1
        0x000030ba:    4301        .C      ORRS     r1,r1,r0
        0x000030bc:    0049        I.      LSLS     r1,r1,#1
        0x000030be:    480b        .H      LDR      r0,[pc,#44] ; [0x30ec] = 0x7ff00000
        0x000030c0:    0849        I.      LSRS     r1,r1,#1
        0x000030c2:    1a41        A.      SUBS     r1,r0,r1
        0x000030c4:    0fc9        ..      LSRS     r1,r1,#31
        0x000030c6:    d00d        ..      BEQ      0x30e4 ; sqrt + 60
        0x000030c8:    2e00        ..      CMP      r6,#0
        0x000030ca:    d001        ..      BEQ      0x30d0 ; sqrt + 40
        0x000030cc:    2101        .!      MOVS     r1,#1
        0x000030ce:    e000        ..      B        0x30d2 ; sqrt + 42
        0x000030d0:    2100        .!      MOVS     r1,#0
        0x000030d2:    430c        .C      ORRS     r4,r4,r1
        0x000030d4:    0061        a.      LSLS     r1,r4,#1
        0x000030d6:    0849        I.      LSRS     r1,r1,#1
        0x000030d8:    1a40        @.      SUBS     r0,r0,r1
        0x000030da:    0fc0        ..      LSRS     r0,r0,#31
        0x000030dc:    d102        ..      BNE      0x30e4 ; sqrt + 60
        0x000030de:    2001        .       MOVS     r0,#1
        0x000030e0:    f7fefec2    ....    BL       __set_errno ; 0x1e68
        0x000030e4:    4628        (F      MOV      r0,r5
        0x000030e6:    4639        9F      MOV      r1,r7
        0x000030e8:    bdf8        ..      POP      {r3-r7,pc}
    $d
        0x000030ea:    0000        ..      DCW    0
        0x000030ec:    7ff00000    ....    DCD    2146435072
    $d.realdata
    .constdata
        0x000030f0:    00000001    ....    DCD    1
        0x000030f4:    00000002    ....    DCD    2
        0x000030f8:    00000004    ....    DCD    4
        0x000030fc:    00000008    ....    DCD    8
        0x00003100:    00000010    ....    DCD    16
        0x00003104:    00000001    ....    DCD    1
        0x00003108:    00000001    ....    DCD    1
        0x0000310c:    00000001    ....    DCD    1
    .constdata
        0x00003110:    00b71b00    ....    DCD    12000000
        0x00003114:    00008000    ....    DCD    32768
        0x00003118:    00002710    .'..    DCD    10000
        0x0000311c:    00000000    ....    DCD    0
    .constdata
    Font8x16
        0x00003120:    00000000    ....    DCD    0
        0x00003124:    00000000    ....    DCD    0
        0x00003128:    00000000    ....    DCD    0
        0x0000312c:    00000000    ....    DCD    0
        0x00003130:    000000f0    ....    DCD    240
        0x00003134:    00000000    ....    DCD    0
        0x00003138:    000000cf    ....    DCD    207
        0x0000313c:    00000000    ....    DCD    0
        0x00003140:    00000000    ....    DCD    0
        0x00003144:    00000000    ....    DCD    0
        0x00003148:    f00000f0    ....    DCD    4026532080
        0x0000314c:    00000000    ....    DCD    0
        0x00003150:    c0000000    ....    DCD    3221225472
        0x00003154:    0030c030    0.0.    DCD    3194928
        0x00003158:    39cf39c8    .9.9    DCD    969882056
        0x0000315c:    0001090f    ....    DCD    67855
        0x00003160:    f81010e0    ....    DCD    4161802464
        0x00003164:    00601010    ..`.    DCD    6295568
        0x00003168:    ff424130    0AB.    DCD    4282532144
        0x0000316c:    00384442    BD8.    DCD    3687490
        0x00003170:    e01020c0    . ..    DCD    3759153344
        0x00003174:    0018e020     ...    DCD    1630240
        0x00003178:    0c31c201    ..1.    DCD    204587521
        0x0000317c:    38448873    s.D8    DCD    944015475
        0x00003180:    1010e000    ....    DCD    269541376
        0x00003184:    000000e0    ....    DCD    224
        0x00003188:    8d828578    x...    DCD    2374141304
        0x0000318c:    429ea270    p..B    DCD    1117692528
        0x00003190:    00000000    ....    DCD    0
        0x00003194:    00000000    ....    DCD    0
        0x00003198:    000000f0    ....    DCD    240
        0x0000319c:    00000000    ....    DCD    0
        0x000031a0:    040830c0    .0..    DCD    67645632
        0x000031a4:    00000000    ....    DCD    0
        0x000031a8:    0080601f    .`..    DCD    8413215
        0x000031ac:    00000000    ....    DCD    0
        0x000031b0:    c0300804    ..0.    DCD    3224373252
        0x000031b4:    00000000    ....    DCD    0
        0x000031b8:    1f608000    ..`.    DCD    526417920
        0x000031bc:    00000000    ....    DCD    0
        0x000031c0:    00000000    ....    DCD    0
        0x000031c4:    00000000    ....    DCD    0
        0x000031c8:    28fe2844    D(.(    DCD    687745092
        0x000031cc:    00000044    D...    DCD    68
        0x000031d0:    80000000    ....    DCD    2147483648
        0x000031d4:    00000000    ....    DCD    0
        0x000031d8:    ff080808    ....    DCD    4278716424
        0x000031dc:    00080808    ....    DCD    526344
        0x000031e0:    00000000    ....    DCD    0
        0x000031e4:    00000000    ....    DCD    0
        0x000031e8:    000070b0    .p..    DCD    28848
        0x000031ec:    00000000    ....    DCD    0
        0x000031f0:    00000000    ....    DCD    0
        0x000031f4:    00000000    ....    DCD    0
        0x000031f8:    80808080    ....    DCD    2155905152
        0x000031fc:    00000000    ....    DCD    0
        0x00003200:    00000000    ....    DCD    0
        0x00003204:    00000000    ....    DCD    0
        0x00003208:    0000c0c0    ....    DCD    49344
        0x0000320c:    00000000    ....    DCD    0
        0x00003210:    70800000    ...p    DCD    1887436800
        0x00003214:    00000000    ....    DCD    0
        0x00003218:    00031ce0    ....    DCD    204000
        0x0000321c:    00000000    ....    DCD    0
        0x00003220:    101020c0    . ..    DCD    269492416
        0x00003224:    0000c020     ...    DCD    49184
        0x00003228:    8080403f    ?@..    DCD    2155888703
        0x0000322c:    00003f40    @?..    DCD    16192
        0x00003230:    0000f020     ...    DCD    61472
        0x00003234:    00000000    ....    DCD    0
        0x00003238:    0080ff80    ....    DCD    8454016
        0x0000323c:    00000000    ....    DCD    0
        0x00003240:    10101060    `...    DCD    269488224
        0x00003244:    0000c020     ...    DCD    49184
        0x00003248:    8890a0c0    ....    DCD    2291179712
        0x0000324c:    0000c186    ....    DCD    49542
        0x00003250:    10101020     ...    DCD    269488160
        0x00003254:    000000e0    ....    DCD    224
        0x00003258:    83828080    ....    DCD    2206367872
        0x0000325c:    00003844    D8..    DCD    14404
        0x00003260:    60800000    ...`    DCD    1619001344
        0x00003264:    000000f0    ....    DCD    240
        0x00003268:    10111618    ....    DCD    269555224
        0x0000326c:    000010ff    ....    DCD    4351
        0x00003270:    1010f000    ....    DCD    269545472
        0x00003274:    00001010    ....    DCD    4112
        0x00003278:    81818180    ....    DCD    2172748160
        0x0000327c:    00003c42    B<..    DCD    15426
        0x00003280:    10204080    .@ .    DCD    270549120
        0x00003284:    00001010    ....    DCD    4112
        0x00003288:    8181423f    ?B..    DCD    2172731967
        0x0000328c:    00003c42    B<..    DCD    15426
        0x00003290:    10101070    p...    DCD    269488240
        0x00003294:    00007090    .p..    DCD    28816
        0x00003298:    1ce00000    ....    DCD    484442112
        0x0000329c:    00000003    ....    DCD    3
        0x000032a0:    101020c0    . ..    DCD    269492416
        0x000032a4:    0000c020     ...    DCD    49184
        0x000032a8:    82824538    8E..    DCD    2189575480
        0x000032ac:    00003845    E8..    DCD    14405
        0x000032b0:    101020c0    . ..    DCD    269492416
        0x000032b4:    0000c020     ...    DCD    49184
        0x000032b8:    48888483    ...H    DCD    1216906371
        0x000032bc:    00001f24    $...    DCD    7972
        0x000032c0:    00000000    ....    DCD    0
        0x000032c4:    00000000    ....    DCD    0
        0x000032c8:    0000c3c3    ....    DCD    50115
        0x000032cc:    00000000    ....    DCD    0
        0x000032d0:    0000c0c0    ....    DCD    49344
        0x000032d4:    00000000    ....    DCD    0
        0x000032d8:    000070b0    .p..    DCD    28848
        0x000032dc:    00000000    ....    DCD    0
        0x000032e0:    00000000    ....    DCD    0
        0x000032e4:    00000000    ....    DCD    0
        0x000032e8:    44282810    .((D    DCD    1143482384
        0x000032ec:    00008244    D...    DCD    33348
        0x000032f0:    00000000    ....    DCD    0
        0x000032f4:    00000000    ....    DCD    0
        0x000032f8:    88888888    ....    DCD    2290649224
        0x000032fc:    88888888    ....    DCD    2290649224
        0x00003300:    00000000    ....    DCD    0
        0x00003304:    00000000    ....    DCD    0
        0x00003308:    28444482    .DD(    DCD    675562626
        0x0000330c:    00001028    (...    DCD    4136
        0x00003310:    101010e0    ....    DCD    269488352
        0x00003314:    0000c020     ...    DCD    49184
        0x00003318:    06d80000    ....    DCD    114819072
        0x0000331c:    00000001    ....    DCD    1
        0x00003320:    901020c0    . ..    DCD    2416976064
        0x00003324:    c0a01090    ....    DCD    3231715472
        0x00003328:    908f403f    ?@..    DCD    2425307199
        0x0000332c:    5f508f90    ..P_    DCD    1599115152
        0x00003330:    70800000    ...p    DCD    1887436800
        0x00003334:    00000080    ....    DCD    128
        0x00003338:    088ff080    ....    DCD    143650944
        0x0000333c:    0080f08f    ....    DCD    8450191
        0x00003340:    1010f010    ....    DCD    269545488
        0x00003344:    00c02010    . ..    DCD    12591120
        0x00003348:    8282ff80    ....    DCD    2189623168
        0x0000334c:    00384582    .E8.    DCD    3687810
        0x00003350:    101020c0    . ..    DCD    269492416
        0x00003354:    00702010    . p.    DCD    7348240
        0x00003358:    8080403f    ?@..    DCD    2155888703
        0x0000335c:    00408080    ..@.    DCD    4227200
        0x00003360:    1010f010    ....    DCD    269545488
        0x00003364:    00806010    .`..    DCD    8413200
        0x00003368:    8080ff80    ....    DCD    2155937664
        0x0000336c:    001f6080    .`..    DCD    2056320
        0x00003370:    1010f010    ....    DCD    269545488
        0x00003374:    00701010    ..p.    DCD    7344144
        0x00003378:    8282ff80    ....    DCD    2189623168
        0x0000337c:    00e08782    ....    DCD    14714754
        0x00003380:    1010f010    ....    DCD    269545488
        0x00003384:    00701010    ..p.    DCD    7344144
        0x00003388:    0282ff80    ....    DCD    42139520
        0x0000338c:    00000702    ....    DCD    1794
        0x00003390:    101020c0    . ..    DCD    269492416
        0x00003394:    00007020     p..    DCD    28704
        0x00003398:    8080403f    ?@..    DCD    2155888703
        0x0000339c:    00047c84    .|..    DCD    294020
        0x000033a0:    0010f010    ....    DCD    1110032
        0x000033a4:    0010f010    ....    DCD    1110032
        0x000033a8:    0282ff80    ....    DCD    42139520
        0x000033ac:    0080ff82    ....    DCD    8454018
        0x000033b0:    0010f010    ....    DCD    1110032
        0x000033b4:    00000000    ....    DCD    0
        0x000033b8:    0080ff80    ....    DCD    8454016
        0x000033bc:    00000000    ....    DCD    0
        0x000033c0:    f0100000    ....    DCD    4027580416
        0x000033c4:    00000010    ....    DCD    16
        0x000033c8:    7f808040    @...    DCD    2139127872
        0x000033cc:    00000000    ....    DCD    0
        0x000033d0:    8010f010    ....    DCD    2148593680
        0x000033d4:    00103050    P0..    DCD    1060944
        0x000033d8:    0c83ff80    ....    DCD    209977216
        0x000033dc:    0080c0b0    ....    DCD    8437936
        0x000033e0:    0010f010    ....    DCD    1110032
        0x000033e4:    00000000    ....    DCD    0
        0x000033e8:    8080ff80    ....    DCD    2155937664
        0x000033ec:    0020c080    .. .    DCD    2146432
        0x000033f0:    0080f010    ....    DCD    8450064
        0x000033f4:    0010f080    ....    DCD    1110144
        0x000033f8:    3c83ff80    ...<    DCD    1015283584
        0x000033fc:    0080ff83    ....    DCD    8454019
        0x00003400:    00c0f010    ....    DCD    12644368
        0x00003404:    0010f010    ....    DCD    1110032
        0x00003408:    0f80ff80    ....    DCD    260112256
        0x0000340c:    0000ff30    0...    DCD    65328
        0x00003410:    10106080    .`..    DCD    269508736
        0x00003414:    00806010    .`..    DCD    8413200
        0x00003418:    8080601f    .`..    DCD    2155896863
        0x0000341c:    001f6080    .`..    DCD    2056320
        0x00003420:    1010f010    ....    DCD    269545488
        0x00003424:    00c02010    . ..    DCD    12591120
        0x00003428:    0484ff80    ....    DCD    75825024
        0x0000342c:    00010204    ....    DCD    66052
        0x00003430:    040418e0    ....    DCD    67377376
        0x00003434:    00e01804    ....    DCD    14686212
        0x00003438:    20201807    ..      DCD    538974215
        0x0000343c:    00879860    `...    DCD    8886368
        0x00003440:    1010f010    ....    DCD    269545488
        0x00003444:    00c02010    . ..    DCD    12591120
        0x00003448:    0c84ff80    ....    DCD    210042752
        0x0000344c:    0081c234    4...    DCD    8503860
        0x00003450:    101020c0    . ..    DCD    269492416
        0x00003454:    00702010    . p.    DCD    7348240
        0x00003458:    828241e0    .A..    DCD    2189574624
        0x0000345c:    00304884    .H0.    DCD    3164292
        0x00003460:    f0101030    0...    DCD    4027584560
        0x00003464:    00301010    ..0.    DCD    3149840
        0x00003468:    ff800000    ....    DCD    4286578688
        0x0000346c:    00000080    ....    DCD    128
        0x00003470:    0010f010    ....    DCD    1110032
        0x00003474:    0010f010    ....    DCD    1110032
        0x00003478:    80807f00    ....    DCD    2155904768
        0x0000347c:    00007f80    ....    DCD    32640
        0x00003480:    0010f010    ....    DCD    1110032
        0x00003484:    0010f010    ....    DCD    1110032
        0x00003488:    e01e0100    ....    DCD    3760062720
        0x0000348c:    0000011e    ....    DCD    286
        0x00003490:    c010f010    ....    DCD    3222335504
        0x00003494:    0010f010    ....    DCD    1110032
        0x00003498:    0ff00f00    ....    DCD    267390720
        0x0000349c:    00000ff0    ....    DCD    4080
        0x000034a0:    00907010    .p..    DCD    9465872
        0x000034a4:    00107090    .p..    DCD    1077392
        0x000034a8:    0699e080    ....    DCD    110747776
        0x000034ac:    0080e099    ....    DCD    8446105
        0x000034b0:    00907010    .p..    DCD    9465872
        0x000034b4:    00107090    .p..    DCD    1077392
        0x000034b8:    fc830000    ....    DCD    4236443648
        0x000034bc:    00000083    ....    DCD    131
        0x000034c0:    10101070    p...    DCD    269488240
        0x000034c4:    0030d010    ..0.    DCD    3198992
        0x000034c8:    8688b0c0    ....    DCD    2257105088
        0x000034cc:    00e08081    ....    DCD    14712961
        0x000034d0:    000404fc    ....    DCD    263420
        0x000034d4:    00000000    ....    DCD    0
        0x000034d8:    008080ff    ....    DCD    8421631
        0x000034dc:    00000000    ....    DCD    0
        0x000034e0:    00008070    p...    DCD    32880
        0x000034e4:    00000000    ....    DCD    0
        0x000034e8:    e01c0300    ....    DCD    3759932160
        0x000034ec:    00000000    ....    DCD    0
        0x000034f0:    00fc0404    ....    DCD    16516100
        0x000034f4:    00000000    ....    DCD    0
        0x000034f8:    00ff8080    ....    DCD    16744576
        0x000034fc:    00000000    ....    DCD    0
        0x00003500:    00000000    ....    DCD    0
        0x00003504:    00000000    ....    DCD    0
        0x00003508:    06186080    .`..    DCD    102260864
        0x0000350c:    00806018    .`..    DCD    8413208
        0x00003510:    00000000    ....    DCD    0
        0x00003514:    00000000    ....    DCD    0
        0x00003518:    80808080    ....    DCD    2155905152
        0x0000351c:    80808080    ....    DCD    2155905152
        0x00003520:    00000000    ....    DCD    0
        0x00003524:    00000000    ....    DCD    0
        0x00003528:    80406020     `@.    DCD    2151702560
        0x0000352c:    00000000    ....    DCD    0
        0x00003530:    00000000    ....    DCD    0
        0x00003534:    00000000    ....    DCD    0
        0x00003538:    49899166    f..I    DCD    1233752422
        0x0000353c:    000080fe    ....    DCD    33022
        0x00003540:    0000f010    ....    DCD    61456
        0x00003544:    00000000    ....    DCD    0
        0x00003548:    81817f00    ....    DCD    2172747520
        0x0000354c:    00003c42    B<..    DCD    15426
        0x00003550:    00000000    ....    DCD    0
        0x00003554:    00000000    ....    DCD    0
        0x00003558:    8181423c    <B..    DCD    2172731964
        0x0000355c:    00004281    .B..    DCD    17025
        0x00003560:    10000000    ....    DCD    268435456
        0x00003564:    000000f0    ....    DCD    240
        0x00003568:    8181423c    <B..    DCD    2172731964
        0x0000356c:    0000807f    ....    DCD    32895
        0x00003570:    00000000    ....    DCD    0
        0x00003574:    00000000    ....    DCD    0
        0x00003578:    89894a3c    <J..    DCD    2307476028
        0x0000357c:    00004c8a    .L..    DCD    19594
        0x00003580:    10e00000    ....    DCD    283115520
        0x00003584:    00002010    . ..    DCD    8208
        0x00003588:    81ff8101    ....    DCD    2181005569
        0x0000358c:    00000001    ....    DCD    1
        0x00003590:    40404080    .@@@    DCD    1077952640
        0x00003594:    00004080    .@..    DCD    16512
        0x00003598:    a4a4ac53    S...    DCD    2762255443
        0x0000359c:    000040a3    .@..    DCD    16547
        0x000035a0:    0000f010    ....    DCD    61456
        0x000035a4:    00000000    ....    DCD    0
        0x000035a8:    0101ff80    ....    DCD    16908160
        0x000035ac:    000080fe    ....    DCD    33022
        0x000035b0:    0000b000    ....    DCD    45056
        0x000035b4:    00000000    ....    DCD    0
        0x000035b8:    0080ff81    ....    DCD    8454017
        0x000035bc:    00000000    ....    DCD    0
        0x000035c0:    cc800000    ....    DCD    3430940672
        0x000035c4:    00000000    ....    DCD    0
        0x000035c8:    7f808040    @...    DCD    2139127872
        0x000035cc:    00000000    ....    DCD    0
        0x000035d0:    0000f010    ....    DCD    61456
        0x000035d4:    00000000    ....    DCD    0
        0x000035d8:    2598ff80    ...%    DCD    630783872
        0x000035dc:    000081c3    ....    DCD    33219
        0x000035e0:    0000f010    ....    DCD    61456
        0x000035e4:    00000000    ....    DCD    0
        0x000035e8:    0080ff80    ....    DCD    8454016
        0x000035ec:    00000000    ....    DCD    0
        0x000035f0:    00000000    ....    DCD    0
        0x000035f4:    00000000    ....    DCD    0
        0x000035f8:    fe01fe81    ....    DCD    4261543553
        0x000035fc:    0080fe01    ....    DCD    8453633
        0x00003600:    00000000    ....    DCD    0
        0x00003604:    00000000    ....    DCD    0
        0x00003608:    0101fe81    ....    DCD    16907905
        0x0000360c:    000080fe    ....    DCD    33022
        0x00003610:    00000000    ....    DCD    0
        0x00003614:    00000000    ....    DCD    0
        0x00003618:    8181423c    <B..    DCD    2172731964
        0x0000361c:    00003c42    B<..    DCD    15426
        0x00003620:    40408040    @.@@    DCD    1077968960
        0x00003624:    00000080    ....    DCD    128
        0x00003628:    20a0ff80    ...     DCD    547422080
        0x0000362c:    00000f10    ....    DCD    3856
        0x00003630:    40408000    ..@@    DCD    1077968896
        0x00003634:    00004080    .@..    DCD    16512
        0x00003638:    a020100f    .. .    DCD    2686455823
        0x0000363c:    000080ff    ....    DCD    33023
        0x00003640:    00000000    ....    DCD    0
        0x00003644:    00000000    ....    DCD    0
        0x00003648:    0182ff81    ....    DCD    25362305
        0x0000364c:    00000001    ....    DCD    1
        0x00003650:    00000000    ....    DCD    0
        0x00003654:    00000000    ....    DCD    0
        0x00003658:    918949e6    .I..    DCD    2441693670
        0x0000365c:    00006792    .g..    DCD    26514
        0x00003660:    00c00000    ....    DCD    12582912
        0x00003664:    00000000    ....    DCD    0
        0x00003668:    817f0101    ....    DCD    2172584193
        0x0000366c:    00004081    .@..    DCD    16513
        0x00003670:    00000000    ....    DCD    0
        0x00003674:    00000000    ....    DCD    0
        0x00003678:    81807f01    ....    DCD    2172681985
        0x0000367c:    0000807f    ....    DCD    32895
        0x00003680:    00000000    ....    DCD    0
        0x00003684:    00000000    ....    DCD    0
        0x00003688:    c0390701    ..9.    DCD    3224962817
        0x0000368c:    00010739    9...    DCD    67385
        0x00003690:    00000000    ....    DCD    0
        0x00003694:    00000000    ....    DCD    0
        0x00003698:    1ce11f01    ....    DCD    484515585
        0x0000369c:    00011fe1    ....    DCD    73697
        0x000036a0:    00000000    ....    DCD    0
        0x000036a4:    00000000    ....    DCD    0
        0x000036a8:    1818e781    ....    DCD    404285313
        0x000036ac:    000081e7    ....    DCD    33255
        0x000036b0:    0040c040    @.@.    DCD    4243520
        0x000036b4:    0040c040    @.@.    DCD    4243520
        0x000036b8:    38468180    ..F8    DCD    944144768
        0x000036bc:    00000106    ....    DCD    262
        0x000036c0:    00000000    ....    DCD    0
        0x000036c4:    00000000    ....    DCD    0
        0x000036c8:    8991a1c3    ....    DCD    2308022723
        0x000036cc:    0000c385    ....    DCD    50053
        0x000036d0:    0008f000    ....    DCD    585728
        0x000036d4:    00000000    ....    DCD    0
        0x000036d8:    00807d02    .}..    DCD    8420610
        0x000036dc:    00000000    ....    DCD    0
        0x000036e0:    000000f0    ....    DCD    240
        0x000036e4:    00000000    ....    DCD    0
        0x000036e8:    000000ff    ....    DCD    255
        0x000036ec:    00000000    ....    DCD    0
        0x000036f0:    0000f008    ....    DCD    61448
        0x000036f4:    00000000    ....    DCD    0
        0x000036f8:    00027d80    .}..    DCD    163200
        0x000036fc:    00000000    ....    DCD    0
        0x00003700:    00000000    ....    DCD    0
        0x00003704:    00000000    ....    DCD    0
        0x00003708:    602020c0    .  `    DCD    1612718272
        0x0000370c:    608080c0    ...`    DCD    1619034304
    Font5x7
        0x00003710:    00000000    ....    DCD    0
        0x00003714:    5f000000    ..._    DCD    1593835520
        0x00003718:    07000000    ....    DCD    117440512
        0x0000371c:    14000700    ....    DCD    335546112
        0x00003720:    147f147f    ....    DCD    343872639
        0x00003724:    2a7f2a24    $*.*    DCD    712976932
        0x00003728:    08132312    .#..    DCD    135471890
        0x0000372c:    49366264    db6I    DCD    1228300900
        0x00003730:    00502255    U"P.    DCD    5251669
        0x00003734:    00000305    ....    DCD    773
        0x00003738:    41221c00    .."A    DCD    1092754432
        0x0000373c:    22410000    ..A"    DCD    574685184
        0x00003740:    2a08001c    ...*    DCD    705167388
        0x00003744:    08082a1c    .*..    DCD    134752796
        0x00003748:    08083e08    .>..    DCD    134757896
        0x0000374c:    00305000    .P0.    DCD    3166208
        0x00003750:    08080800    ....    DCD    134744064
        0x00003754:    60000808    ...`    DCD    1610614792
        0x00003758:    20000060    `..     DCD    536871008
        0x0000375c:    02040810    ....    DCD    33818640
        0x00003760:    4549513e    >QIE    DCD    1162432830
        0x00003764:    7f42003e    >.B.    DCD    2135031870
        0x00003768:    61420040    @.Ba    DCD    1631715392
        0x0000376c:    21464951    QIF!    DCD    558254417
        0x00003770:    314b4541    AEK1    DCD    827016513
        0x00003774:    7f121418    ....    DCD    2131891224
        0x00003778:    45452710    .'EE    DCD    1162159888
        0x0000377c:    4a3c3945    E9<J    DCD    1245460805
        0x00003780:    01304949    II0.    DCD    19941705
        0x00003784:    03050971    q...    DCD    50661745
        0x00003788:    49494936    6III    DCD    1229539638
        0x0000378c:    49490636    6.II    DCD    1229522486
        0x00003790:    36001e29    )..6    DCD    905977385
        0x00003794:    00000036    6...    DCD    54
        0x00003798:    00003656    V6..    DCD    13910
        0x0000379c:    22140800    ..."    DCD    571738112
        0x000037a0:    14141441    A...    DCD    336860225
        0x000037a4:    22411414    ..A"    DCD    574690324
        0x000037a8:    02000814    ....    DCD    33556500
        0x000037ac:    06095101    .Q..    DCD    101273857
        0x000037b0:    41794932    2IyA    DCD    1098467634
        0x000037b4:    11117e3e    >~..    DCD    286359102
        0x000037b8:    497f7e11    .~.I    DCD    1233092113
        0x000037bc:    3e364949    II6>    DCD    1043745097
        0x000037c0:    22414141    AAA"    DCD    574701889
        0x000037c4:    2241417f    .AA"    DCD    574701951
        0x000037c8:    49497f1c    ..II    DCD    1229553436
        0x000037cc:    097f4149    IA..    DCD    159334729
        0x000037d0:    3e010109    ...>    DCD    1040253193
        0x000037d4:    32514141    AAQ2    DCD    844185921
        0x000037d8:    0808087f    ....    DCD    134744191
        0x000037dc:    7f41007f    ..A.    DCD    2134966399
        0x000037e0:    40200041    A. @    DCD    1075839041
        0x000037e4:    7f013f41    A?..    DCD    2130788161
        0x000037e8:    41221408    .."A    DCD    1092752392
        0x000037ec:    4040407f    .@@@    DCD    1077952639
        0x000037f0:    04027f40    @...    DCD    67272512
        0x000037f4:    047f7f02    ....    DCD    75464450
        0x000037f8:    3e7f1008    ...>    DCD    1048514568
        0x000037fc:    3e414141    AAA>    DCD    1044463937
        0x00003800:    0909097f    ....    DCD    151587199
        0x00003804:    51413e06    .>AQ    DCD    1363230214
        0x00003808:    097f5e21    !^..    DCD    159342113
        0x0000380c:    46462919    .)FF    DCD    1179003161
        0x00003810:    31494949    III1    DCD    826886473
        0x00003814:    017f0101    ....    DCD    25100545
        0x00003818:    40403f01    .?@@    DCD    1077952257
        0x0000381c:    201f3f40    @?.     DCD    538918720
        0x00003820:    7f1f2040    @ ..    DCD    2132746304
        0x00003824:    7f201820     . .    DCD    2132809760
        0x00003828:    14081463    c...    DCD    336073827
        0x0000382c:    78040363    c..x    DCD    2013528931
        0x00003830:    51610304    ..aQ    DCD    1365312260
        0x00003834:    00434549    IEC.    DCD    4408649
        0x00003838:    41417f00    ..AA    DCD    1094811392
        0x0000383c:    10080402    ....    DCD    268960770
        0x00003840:    7f414120     AA.    DCD    2134982944
        0x00003844:    02040000    ....    DCD    33816576
        0x00003848:    40040201    ...@    DCD    1074004481
        0x0000384c:    40404040    @@@@    DCD    1077952576
        0x00003850:    04020100    ....    DCD    67240192
        0x00003854:    54542000    . TT    DCD    1414799360
        0x00003858:    487f7854    Tx.H    DCD    1216313428
        0x0000385c:    38384444    DD88    DCD    943211588
        0x00003860:    20444444    DDD     DCD    541344836
        0x00003864:    48444438    8DDH    DCD    1212433464
        0x00003868:    5454387f    .8TT    DCD    1414805631
        0x0000386c:    7e081854    T..~    DCD    2114459732
        0x00003870:    08020109    ....    DCD    134349065
        0x00003874:    3c545414    .TT<    DCD    1012159508
        0x00003878:    0404087f    ....    DCD    67373183
        0x0000387c:    7d440078    x.D}    DCD    2101608568
        0x00003880:    40200040    @. @    DCD    1075839040
        0x00003884:    00003d44    D=..    DCD    15684
        0x00003888:    4428107f    ..(D    DCD    1143476351
        0x0000388c:    407f4100    .A.@    DCD    1082081536
        0x00003890:    18047c00    .|..    DCD    402947072
        0x00003894:    087c7804    .x|.    DCD    142374916
        0x00003898:    38780404    ..x8    DCD    947389444
        0x0000389c:    38444444    DDD8    DCD    943998020
        0x000038a0:    1414147c    |...    DCD    336860284
        0x000038a4:    14140808    ....    DCD    336857096
        0x000038a8:    087c7c18    .||.    DCD    142375960
        0x000038ac:    48080404    ...H    DCD    1208484868
        0x000038b0:    20545454    TTT     DCD    542397524
        0x000038b4:    40443f04    .?D@    DCD    1078214404
        0x000038b8:    40403c20     <@@    DCD    1077951520
        0x000038bc:    201c7c20     |.     DCD    538737696
        0x000038c0:    3c1c2040    @ .<    DCD    1008476224
        0x000038c4:    3c403040    @0@<    DCD    1010839616
        0x000038c8:    28102844    D(.(    DCD    672147524
        0x000038cc:    50500c44    D.PP    DCD    1347423300
        0x000038d0:    64443c50    P<Dd    DCD    1682193488
        0x000038d4:    00444c54    TLD.    DCD    4475988
        0x000038d8:    00413608    .6A.    DCD    4273672
        0x000038dc:    007f0000    ....    DCD    8323072
        0x000038e0:    36410000    ..A6    DCD    910229504
        0x000038e4:    08080008    ....    DCD    134742024
        0x000038e8:    08081c2a    *...    DCD    134749226
        0x000038ec:    08082a1c    .*..    DCD    134752796
    .constdata
    atanhi
        0x000038f0:    0561bb4f    O.a.    DCD    90291023
        0x000038f4:    3fddac67    g..?    DCD    1071492199
        0x000038f8:    54442d18    .-DT    DCD    1413754136
        0x000038fc:    3fe921fb    .!.?    DCD    1072243195
        0x00003900:    d281f69b    ....    DCD    3531732635
        0x00003904:    3fef730b    .s.?    DCD    1072657163
        0x00003908:    54442d18    .-DT    DCD    1413754136
        0x0000390c:    3ff921fb    .!.?    DCD    1073291771
    atanlo
        0x00003910:    222f65e2    .e/"    DCD    573531618
        0x00003914:    3c7a2b7f    .+z<    DCD    1014639487
        0x00003918:    33145c07    .\.3    DCD    856972295
        0x0000391c:    3c81a626    &..<    DCD    1015129638
        0x00003920:    7af0cbbd    ...z    DCD    2062601149
        0x00003924:    3c700788    ..p<    DCD    1013974920
        0x00003928:    33145c07    .\.3    DCD    856972295
        0x0000392c:    3c91a626    &..<    DCD    1016178214
    aTodd
        0x00003930:    9998ebc4    ....    DCD    2576935876
        0x00003934:    bfc99999    ....    DCD    3217660313
        0x00003938:    fe231671    q.#.    DCD    4263712369
        0x0000393c:    bfbc71c6    .q..    DCD    3216798150
        0x00003940:    af749a6d    m.t.    DCD    2943654509
        0x00003944:    bfb3b0f2    ....    DCD    3216224498
        0x00003948:    52defd9a    ...R    DCD    1390345626
        0x0000394c:    bfadde2d    -...    DCD    3215842861
        0x00003950:    2c6a6c2f    /lj,    DCD    745172015
        0x00003954:    bfa2b444    D...    DCD    3215111236
    aTeven
        0x00003958:    5555550d    .UUU    DCD    1431655693
        0x0000395c:    3fd55555    UU.?    DCD    1070945621
        0x00003960:    920083ff    ....    DCD    2449507327
        0x00003964:    3fc24924    $I.?    DCD    1069697316
        0x00003968:    c54c206e    n L.    DCD    3310100590
        0x0000396c:    3fb745cd    .E.?    DCD    1068975565
        0x00003970:    a0d03d51    Q=..    DCD    2698001745
        0x00003974:    3fb10d66    f..?    DCD    1068567910
        0x00003978:    24760deb    ..v$    DCD    611716587
        0x0000397c:    3fa97b4b    K{.?    DCD    1068071755
        0x00003980:    e322da11    ..".    DCD    3810712081
        0x00003984:    3f90ad3a    :..?    DCD    1066446138
    .constdata
    bp
        0x00003988:    00000000    ....    DCD    0
        0x0000398c:    3ff00000    ...?    DCD    1072693248
        0x00003990:    00000000    ....    DCD    0
        0x00003994:    3ff80000    ...?    DCD    1073217536
    dp_h
        0x00003998:    00000000    ....    DCD    0
        0x0000399c:    00000000    ....    DCD    0
        0x000039a0:    40000000    ...@    DCD    1073741824
        0x000039a4:    3fe2b803    ...?    DCD    1071822851
    dp_l
        0x000039a8:    00000000    ....    DCD    0
        0x000039ac:    00000000    ....    DCD    0
        0x000039b0:    43cfd006    ...C    DCD    1137692678
        0x000039b4:    3e4cfdeb    ..L>    DCD    1045233131
    L
        0x000039b8:    33333303    .333    DCD    858993411
        0x000039bc:    3fe33333    33.?    DCD    1071854387
        0x000039c0:    db6fabff    ..o.    DCD    3681528831
        0x000039c4:    3fdb6db6    .m.?    DCD    1071345078
        0x000039c8:    518f264d    M&.Q    DCD    1368335949
        0x000039cc:    3fd55555    UU.?    DCD    1070945621
        0x000039d0:    a91d4101    .A..    DCD    2837266689
        0x000039d4:    3fd17460    `t.?    DCD    1070691424
        0x000039d8:    93c9db65    e...    DCD    2479479653
        0x000039dc:    3fcd864a    J..?    DCD    1070433866
        0x000039e0:    4a454eef    .NEJ    DCD    1246056175
        0x000039e4:    3fca7e28    (~.?    DCD    1070235176
    P
        0x000039e8:    5555553e    >UUU    DCD    1431655742
        0x000039ec:    3fc55555    UU.?    DCD    1069897045
        0x000039f0:    16bebd93    ....    DCD    381599123
        0x000039f4:    bf66c16c    l.f.    DCD    3211182444
        0x000039f8:    af25de2c    ,.%.    DCD    2938494508
        0x000039fc:    3f11566a    jV.?    DCD    1058100842
        0x00003a00:    c5d26bf1    .k..    DCD    3318901745
        0x00003a04:    bebbbd41    A...    DCD    3199974721
        0x00003a08:    72bea4d0    ...r    DCD    1925096656
        0x00003a0c:    3e663769    i7f>    DCD    1046886249
    .constdata
    __mathlib_zero
        0x00003a10:    00000000    ....    DCD    0
        0x00003a14:    00000000    ....    DCD    0
    Region$$Table$$Base
        0x00003a18:    00003a38    8:..    DCD    14904
        0x00003a1c:    20000000    ...     DCD    536870912
        0x00003a20:    00000ff4    ....    DCD    4084
        0x00003a24:    00001e48    H...    DCD    7752
        0x00003a28:    00004a2c    ,J..    DCD    18988
        0x00003a2c:    20000ff4    ...     DCD    536874996
        0x00003a30:    00000904    ....    DCD    2308
        0x00003a34:    00001e58    X...    DCD    7768
    Region$$Table$$Limit

** Section #2 'ER_RW' (SHT_PROGBITS) [SHF_ALLOC + SHF_WRITE]
    Size   : 4084 bytes (alignment 4)
    Address: 0x20000000


** Section #3 'ER_ZI' (SHT_NOBITS) [SHF_ALLOC + SHF_WRITE]
    Size   : 2308 bytes (alignment 8)
    Address: 0x20000ff4


** Section #4 '.debug_abbrev' (SHT_PROGBITS)
    Size   : 1476 bytes


** Section #5 '.debug_frame' (SHT_PROGBITS)
    Size   : 3380 bytes


** Section #6 '.debug_info' (SHT_PROGBITS)
    Size   : 49964 bytes


** Section #7 '.debug_line' (SHT_PROGBITS)
    Size   : 15704 bytes


** Section #8 '.debug_loc' (SHT_PROGBITS)
    Size   : 6384 bytes


** Section #9 '.debug_macinfo' (SHT_PROGBITS)
    Size   : 516584 bytes


** Section #10 '.debug_pubnames' (SHT_PROGBITS)
    Size   : 2455 bytes


** Section #11 '.symtab' (SHT_SYMTAB)
    Size   : 9584 bytes (alignment 4)
    String table #12 '.strtab'
    Last local symbol no. 362


** Section #12 '.strtab' (SHT_STRTAB)
    Size   : 7332 bytes


** Section #13 '.note' (SHT_NOTE)
    Size   : 28 bytes (alignment 4)


** Section #14 '.comment' (SHT_PROGBITS)
    Size   : 17624 bytes


** Section #15 '.shstrtab' (SHT_STRTAB)
    Size   : 156 bytes


